(dp1
S'output'
p2
S'<class \'_mysql_exceptions.OperationalError\'> (1054, "Unknown column \'Lesson\' in \'field list\'")'
p3
sS'layer'
p4
S'/usr/local/web2py/applications/Bundjalung/controllers/language.py'
p5
sS'code'
p6
S'import string\n\n# NOte the existence of languageList!=None means this is part of dictinary interface\nlangaugeList=language\n@auth.requires_login()\ndef index():\n    \n        words=dblanguage(languagewords.id>0).select( orderby=languagewords.English)\n\n    \treturn dict(words=words)\n\n\n#FIXME language dependant\nimport os\nimport ftfy\n\ndef fix_word(word):\n\n    word.Comment=fix_bad_unicode(word.Comment.strip())\n    word.Gold_Coast_Tweed=fix_bad_unicode( word.Gold_Coast_Tweed.strip())\n    word.Lower_Richmond=fix_bad_unicode(word.Lower_Richmond.strip())\n    word.Middle_Clarence=fix_bad_unicode( word.Middle_Clarence.strip())\n    word.Condamine_Upper_Clarence=fix_bad_unicode(word.Condamine_Upper_Clarence.strip())\n    word.Copmanhurst=fix_bad_unicode(   word.Copmanhurst.strip())\n\n    return word\n\ndef translateunicode():\n    s=None\n    t=None\n    if (request.vars):\n\t    text=request.vars.text_input\n\t    s=unicode(text,\'UTF-8\')\n\t    t=ftfy.fix_text_encoding(s)\n    return dict(string=s, translate=t)\n\ndef  fix_bad_unicode(text):\n    s=unicode(text,"UTF-8")\n    s=ftfy.fix_text_encoding(s)\n    return s\n\ndef search(orderbys, searchterm,typequery, dialect, extra):\n    words=None\n    if extra=="Exact":\n    \tif typequery=="English":\n    \t\tquery=(dblanguage.Bundjalung.Search_English==searchterm)|dblanguage.Bundjalung.Search_English.startswith(searchterm+\' ;\')|(dblanguage.Bundjalung.Search_English.contains("; "+searchterm ))|(dblanguage.Bundjalung.Search_English.endswith("; "+searchterm))\n    \telse:\n                query= dblanguage.Bundjalung.Language_Word==searchterm\n    else:\n\t if typequery=="English":\n\t\tquery= dblanguage.Bundjalung.Search_English.contains(searchterm)\n\t else:\n\t        query= dblanguage.Bundjalung.Language_Word.contains(searchterm)\n    if dialect!="All":\n\tif dialect=="Middle Clarence":\n\t\tquery=query&(dblanguage.Bundjalung.Middle_Clarence!="")\n\telif dialect=="Condamine Upper Clarence":\n\t\t query=query&(dblanguage.Bundjalung.Condamine_Upper__Clarence!="")\n\telif dialect=="Lower Richmond":\n\t\t query=query&(dblanguage.Bundjalung.Lower_Richmond!="")\n\telif dialect=="Gold Coast Tweed":\n\t\t query=query&(dblanguage.Bundjalung.Gold_Coast_Tweed!="")\n\telse:\t\n\t\tquery=query&(dblanguage.Bundjalung.Copmanhurst!="")\n    words=dblanguage(query).select(orderby=orderbys)\n    return words\n\n\ndef lesson():\n    import json\n    wordlist=[]\n    name=request.args[0]\n    words=dblanguage(dblanguage.Bundjalung.Lesson==name).select()\n    rows = [word for word in words]\n    #cols = [word for word in words.description]\n    for row in rows:\n    \tword_json=row.__dict__\n  \twordlist.append(word_json)\n\n    return dict(wordlist=wordlist)\n\n@auth.requires_login()\ndef dictionary():\n    names = db(db.dialect.id>0).select(db.dialect.name)\n    numerics=[]\n    dialectid=None\n    alphanumeric=""\n    sort=request.vars[\'type\']\n    if request.args:\n        order=request.args[0]\n    else:\n\torder=sort\n    orderbys=dblanguage.Bundjalung.Search_English\n    if order==language:\n                orderbys=dblanguage.Bundjalung.Language_Word\n    elif order==\'Category\':\n                orderbys=dblanguage.Bundjalung.Category\n\n    searchterms=request.vars[\'query\']\n    if searchterms=="None":\n    \tsearchterms=""\n    try:\n\talphanumeric=request.vars[\'numeric\']\n    \tdialectid=request.vars[\'dialect\']\n    except:\n\tpass\n    exact=alphanumeric \n    dialect=""\n    if dialectid: \n\tdialectRow=db.dialect(name=dialectid)\n    \tif dialectRow: dialect=dialectRow.name\n    if searchterms and searchterms!="":\n        response.start=False\t\n\twordlist =search(orderbys,searchterms,sort,dialect,alphanumeric)\n\tnumerics=[\'Exact\',\'Related\']\n\texact="Exact"\t\n\tif wordlist==[]:\n\t\texact="Related"\n\t\twordlist =search(orderbys, searchterms,sort,dialect,\'Related\')\n    else:\n    \twordlist=[]\n    \tif (not(sort)):\n \t\tsort="English"\n\tif (not alphanumeric):\n\t\talphanumeric=\'A\'\n    \tif(sort==\'English\'):\n\t\tnumerics=[\'A\',\'B\',\'C\',\'D\',\'E\',\'F\',\'G\',\'H\',\'I\',\'J\',\'K\',\'L\',\'M\',\'N\',\'O\',\'P\',\'Q\',\'R\',\'S\',\'T\',\'U\',\'V\',\'W\',\'X\',\'Y\',\'Z\']\n\t\tcondition = dblanguage.Bundjalung.Search_English.startswith(alphanumeric.lower())|dblanguage.Bundjalung.Search_English.startswith(\'-\'+alphanumeric.lower())\n\n\t        wordlist=dblanguage(condition).select(orderby=orderbys)\n    \telse:\n\t\tnumerics=[\'A\',\'BA\',\'BE\',\'BI\', \'BU\',\'D\',\'J\',\'L\',\'M\',\'N\',\'NG\',\'NY\',\'O\',\'S\',\'WA\', \'WE\', \'WI\', \'WU\',\'YA\',\'YE\',\'Yi\',\'YU\']\n\t\tcondition = dblanguage.Bundjalung.Language_Word.startswith(alphanumeric.lower())|dblanguage.Bundjalung.Language_Word.startswith(\'-\'+alphanumeric.lower())\n\t\tif alphanumeric==\'N\':\n\t\t\tc2= (dblanguage.Bundjalung.Language_Word.startswith("na"))\n\t\t\tc3=(dblanguage.Bundjalung.Language_Word.startswith("ne"))\n\t\t\tc4=(dblanguage.Bundjalung.Language_Word.startswith("ni"))\n\t\t\tc5= (dblanguage.Bundjalung.Language_Word.startswith("nu"))\n        \t\twordlist=dblanguage(c2|c3|c4|c5).select(dblanguage.Bundjalung.ALL, orderby=orderbys)\n\t\t\twl2=dblanguage(c3).select(dblanguage.Bundjalung.ALL, orderby=orderbys)\n\t \telse:\n\t\t\twordlist=dblanguage(condition).select(orderby=orderbys)\n    for word in wordlist:\n\tread_word(word)\n    if order==\'Dialect\':\n\t#this is so cool\n\twordlist=sorted(wordlist,key= lambda word: word[\'dialect\'])\t\t\n    top_message = language +" Dictionary"\n    w = db.plugin_wiki_page\n    page = w(slug=\'usedictionary\')    \n    if page: pageteaser=page.summary\n    else: pageteaser=""\n    return dict(start=response.start, page=pageteaser, dialect= dialect, sort=sort, exact=exact, names=names, query=searchterms, words=wordlist, top_message=top_message, numeric= alphanumeric, numerics=numerics)\n\n\ndef wordlist():\n  \tresults= dictionary()\n\tresults[\'start\']=False\t\n\treturn results\n\n\ndef dictionarysort():\n    sort=request.args(0)\n    if(sort==None):sort=\'English\'\n    wordlist=dblanguage(dblanguage.Bundjalung.Category==sort).select(dblanguage.Bundjalung.ALL, orderby=dblanguage.Bundjalung.Language_Word)\n    for word in wordlist:\n        read_word(word)\n    top_message = language +" List sorted for "+sort\n    return dict(words=wordlist, top_message=top_message)\n\n\ndef view_word():\n    word_id=request.args(0)\n    words=dblanguage.Bundjalung\n    word, examples=read_word(dblanguage.Bundjalung(dblanguage.Bundjalung.id==word_id))\n    word=fix_word(word)\n\n    link = URL(r=request, c=\'language\' ,f=\'edit_word\', args=word_id)\n    return dict(link = link, word=word, exampleSentences=examples, language=language )\n\ndef view_word_popup():\n    word_id=request.args(0)\n    words=dblanguage.Bundjalung\n    word,examples =read_word(dblanguage.Bundjalung(dblanguage.Bundjalung.id==word_id))\n    word=fix_word(word)\n    link = URL(r=request, c=\'language\' ,f=\'edit_word\', args=word_id)\n    return dict(link = link, word=word)\n\n\ndef translate():\n    word = request.args(0) or \'\'\n    if not request.args:\n        redirect(URL(r=request, c=\'language\' ,f=\'index\'))\n    lang= request.args(1)\n\n    if lang==\'English\':\n\twords=(languagewords.id>0)(languagewords.Search_English==word).select( orderby=languagewords.language)\n    elif not lang: \n\tlang=language\n\twords=(languagewords.id>0)(languagewords.language==word).select( orderby=languagewords.Search_English)\n\t\n    return  dict(words=words)\n\ndef category():\n\n    word = request.args(0) or \'\'\n    if not request.args:\n        redirect(URL(r=request, c=\'language\' ,f=\'index\'))\n    category= request.args(1)\n\n    words=(languagewords.id>0)(languagewords.Category==category).select( orderby=languagewords.language)\n\n    return  dict(words=words)\n\n@auth.requires_login()\ndef create_word():\n    if not request.args:\n        redirect(URL(r=request,c=\'language\', f=\'index\'))\n    create_word = request.args(0)\n    name=create_word.replace(\'_\',\' \')\n\n    word=languageword(Search_English==name)\n    form = crud.create(dblanguageword)\n    return dict(word=word, form=form)\n\n    \n# edit clws\n@auth.requires_login()\ndef edit_word():\n    word_id=request.args(0)\n    try:\n        integer=True\n        word_id=int(word_id)\n    except :\n        integer=False\n\tword_id=0\n    try:\n \tname=word_id.replace(\'_\',\' \')\n    except: \n\tname=""\n    w = dblanguage.Bundjalung\n    if integer:\n\tword = w(id=word_id)\n    else:\n\tword = w(Language_Word=name)\n    if not word:\n        word = w.insert(Language_Word=name)\n    word, examples =read_word(word)\n    if word: \n\tword_id=word.id\n    \tif auth.has_membership(auth.id_group(\'developer\')):\n\n\t    form = crud.update(w, word, deletable=True, onaccept=crud.archive,\n                       next=URL(r=request,c=\'language\', f=\'view_word\',args=word_id))\n    \telse:\n            form = crud.update(w, word, deletable=False, onaccept=crud.archive,\n                       next=URL(r=request,c=\'language\', f=\'view_word\',args=word_id))\n    return dict(form=form,word=word,examples=examples)\n\ndef read_word(word):\n\tword.Sound=word.SoundFile\t\n\tif (not word.SoundFile or word.SoundFile==\'\'or word.SoundFile==" "): \n\t\t\n\t\tparts= word.Language_Word.split(\',\')\n\t\tword.Sound=parts[0]+".mp3"\n\t\t#word.Sound=word.Language_Word+".mp3"\n        \tif(os.path.exists(\'applications/\'+language+\'/uploads/media/sounds/\'+word.Sound)):\n\t    \t\tword.Sound = URL(r=request, c=\'default\',f=\'sounds\', args=word.Sound)\n        \telse:\n\t   \t\tif (not word.SoundFile or word.SoundFile==\'\'): \n\t\t\t\tword.Sound=parts[0]+".wav"\n           \t\tif(os.path.exists(\'applications/\'+language+\'/uploads/media/sounds/\'+word.Sound)):\n\t\t\t\tword.Sound = URL(r=request, c=\'default\',f=\'sounds\', args=word.Sound)\n\t   \t\telse: word.Sound=None\n\tword.Image=word.Image.strip()\n\tword.ImageLink=word.Image\n\tif(word.Image==None or word.Image==""):word.Image=word.Search_English\n\tend=string.find(word.Image,\';\');\n\tif end>0:word.Image=word.Image[0:end]\n        word.Image=word.Image.replace(\', \',\'_\')\n\n\tword.Image=word.Image.replace(\' \',\'_\')\n        if(os.path.exists(\'applications/\'+language+\'/uploads/media/images/\'+word.Image+\'.gif\')):\n                word.ImageLink = URL(r=request, c=\'default\',f=\'images\', args=word.Image+\'.gif\')\n        else: word.ImageLink=""\n        if(word.ImageLink==""):\n                if(os.path.exists(\'applications/\'+language+\'/uploads/media/images/\'+word.Image+\'.jpg\')):\n\t\t\tword.ImageLink = URL(r=request, c=\'default\',f=\'images\', args=word.Image+\'.gif\')\n                else: word.Image=""\n\tcondition = dblanguage.BundjalungExamples.language_id==word.id\n        examplelist=dblanguage(condition).select(dblanguage.BundjalungExamples.ALL)\n\tword.dialect=""\n\tcolour="black"\n\tif word.Gold_Coast_Tweed.strip() !="":\n\t\tword.dialect+="Gold Coast Tweed, "\n\tif word.Lower_Richmond.strip()!="":\n\t\tword.dialect+="Lower Richmond, "\n\n        if word.Middle_Clarence.strip()!="":\n                word.dialect+="Middle Clarence, "\n\n        if word.Condamine_Upper_Clarence.strip()!="":\n                word.dialect+="Condamine Upper Clarence, "\n\n        if word.Copmanhurst.strip()!="":\n                word.dialect+="Copmanhurst "\n#remove \',\'\n\tword.dialect = word.dialect.strip()[:-1]\n\tif word.dialect.strip()=="": word.dialect="All"\n# if only one dialect\n \tif word.dialect!="" and word.dialect.find(\',\')<0:\n\t\tcolour=db(db.dialect.name==word.dialect).select()\n\t\tif colour: word.color=colour[0].color\n\t\telse: word.color=\'black\'\n\telse:\n\t\tword.color=\'black\'\n        return word, examplelist\n\n\nresponse._vars=response._caller(edit_word)\n'
p7
sS'snapshot'
p8
(dp9
S'exception'
p10
(dp11
S'__module__'
p12
S"'_mysql_exceptions'"
p13
sS'__getslice__'
p14
S"<method-wrapper '__getslice__' of OperationalError object>"
p15
sS'__str__'
p16
S"<method-wrapper '__str__' of OperationalError object>"
p17
sS'__reduce__'
p18
S'<built-in method __reduce__ of OperationalError object>'
p19
sS'__dict__'
p20
S'{}'
p21
sS'__sizeof__'
p22
S'<built-in method __sizeof__ of OperationalError object>'
p23
sS'__weakref__'
p24
S'None'
p25
sS'__init__'
p26
S"<method-wrapper '__init__' of OperationalError object>"
p27
sS'__setattr__'
p28
S"<method-wrapper '__setattr__' of OperationalError object>"
p29
sS'__reduce_ex__'
p30
S'<built-in method __reduce_ex__ of OperationalError object>'
p31
sS'__new__'
p32
S'<built-in method __new__ of type object>'
p33
sS'__format__'
p34
S'<built-in method __format__ of OperationalError object>'
p35
sS'__class__'
p36
S"<class '_mysql_exceptions.OperationalError'>"
p37
sS'__doc__'
p38
S"'Exception raised for errors that are related to ...cation\\n    error occurred during processing, etc.'"
p39
sS'__getitem__'
p40
S"<method-wrapper '__getitem__' of OperationalError object>"
p41
sS'__setstate__'
p42
S'<built-in method __setstate__ of OperationalError object>'
p43
sS'__getattribute__'
p44
S"<method-wrapper '__getattribute__' of OperationalError object>"
p45
sS'args'
p46
S'(1054, "Unknown column \'Lesson\' in \'field list\'")'
p47
sS'__subclasshook__'
p48
S'<built-in method __subclasshook__ of type object>'
p49
sS'__unicode__'
p50
S'<built-in method __unicode__ of OperationalError object>'
p51
sS'__delattr__'
p52
S"<method-wrapper '__delattr__' of OperationalError object>"
p53
sS'__repr__'
p54
S"<method-wrapper '__repr__' of OperationalError object>"
p55
sS'__hash__'
p56
S"<method-wrapper '__hash__' of OperationalError object>"
p57
ssS'evalue'
p58
S'(1054, "Unknown column \'Lesson\' in \'field list\'")'
p59
sS'request'
p60
cgluon.html
XML_unpickle
p61
(S's\x8ak\x00\x00<div><table><tr><td style="font-weight:bold;vertical-align:top;">ajax</td><td style="vertical-align:top;">:</td><td><div>False</div></td></tr><tr><td style="font-weight:bold;vertical-align:top;">application</td><td style="vertical-align:top;">:</td><td><div>Bundjalung</div></td></tr><tr><td style="font-weight:bold;vertical-align:top;">args</td><td style="vertical-align:top;">:</td><td><div><table><tr><td><div>3936</div></td></tr></table></div></td></tr><tr><td style="font-weight:bold;vertical-align:top;">cid</td><td style="vertical-align:top;">:</td><td><div>None</div></td></tr><tr><td style="font-weight:bold;vertical-align:top;">client</td><td style="vertical-align:top;">:</td><td><div>113.197.9.114</div></td></tr><tr><td style="font-weight:bold;vertical-align:top;">controller</td><td style="vertical-align:top;">:</td><td><div>language</div></td></tr><tr><td style="font-weight:bold;vertical-align:top;">cookies</td><td style="vertical-align:top;">:</td><td><div><table><tr><td style="font-weight:bold;vertical-align:top;">session_id_bundjalung</td><td style="vertical-align:top;">:</td><td><div>50456:e07c11df-c786-422e-946f-1cbe799d9866<table><tr><td style="font-weight:bold;vertical-align:top;">comment</td><td style="vertical-align:top;">:</td><td><div></div></td></tr><tr><td style="font-weight:bold;vertical-align:top;">domain</td><td style="vertical-align:top;">:</td><td><div></div></td></tr><tr><td style="font-weight:bold;vertical-align:top;">expires</td><td style="vertical-align:top;">:</td><td><div></div></td></tr><tr><td style="font-weight:bold;vertical-align:top;">httponly</td><td style="vertical-align:top;">:</td><td><div></div></td></tr><tr><td style="font-weight:bold;vertical-align:top;">max-age</td><td style="vertical-align:top;">:</td><td><div></div></td></tr><tr><td style="font-weight:bold;vertical-align:top;">path</td><td style="vertical-align:top;">:</td><td><div></div></td></tr><tr><td style="font-weight:bold;vertical-align:top;">secure</td><td style="vertical-align:top;">:</td><td><div></div></td></tr><tr><td style="font-weight:bold;vertical-align:top;">version</td><td style="vertical-align:top;">:</td><td><div></div></td></tr></table></div></td></tr></table></div></td></tr><tr><td style="font-weight:bold;vertical-align:top;">env</td><td style="vertical-align:top;">:</td><td><div><table><tr><td style="font-weight:bold;vertical-align:top;">CONTENT_LENGTH</td><td style="vertical-align:top;">:</td><td><div>3409</div></td></tr><tr><td style="font-weight:bold;vertical-align:top;">CONTENT_TYPE</td><td style="vertical-align:top;">:</td><td><div>multipart/form-data; boundary=----WebKitFormBoundaryiMEjG3ggA5r8l3OZ</div></td></tr><tr><td style="font-weight:bold;vertical-align:top;">CONTEXT_DOCUMENT_ROOT</td><td style="vertical-align:top;">:</td><td><div>/home/Language/</div></td></tr><tr><td style="font-weight:bold;vertical-align:top;">CONTEXT_PREFIX</td><td style="vertical-align:top;">:</td><td><div></div></td></tr><tr><td style="font-weight:bold;vertical-align:top;">DOCUMENT_ROOT</td><td style="vertical-align:top;">:</td><td><div>/home/Language/</div></td></tr><tr><td style="font-weight:bold;vertical-align:top;">GATEWAY_INTERFACE</td><td style="vertical-align:top;">:</td><td><div>CGI/1.1</div></td></tr><tr><td style="font-weight:bold;vertical-align:top;">HTTP_ACCEPT</td><td style="vertical-align:top;">:</td><td><div>text/html,application/xhtml+xml,application/xml;q=0.9,image/webp,*/*;q=0.8</div></td></tr><tr><td style="font-weight:bold;vertical-align:top;">HTTP_ACCEPT_ENCODING</td><td style="vertical-align:top;">:</td><td><div>gzip, deflate</div></td></tr><tr><td style="font-weight:bold;vertical-align:top;">HTTP_ACCEPT_LANGUAGE</td><td style="vertical-align:top;">:</td><td><div>en-US,en;q=0.8,es;q=0.6</div></td></tr><tr><td style="font-weight:bold;vertical-align:top;">HTTP_CACHE_CONTROL</td><td style="vertical-align:top;">:</td><td><div>max-age=0</div></td></tr><tr><td style="font-weight:bold;vertical-align:top;">HTTP_CONNECTION</td><td style="vertical-align:top;">:</td><td><div>Keep-Alive</div></td></tr><tr><td style="font-weight:bold;vertical-align:top;">HTTP_COOKIE</td><td style="vertical-align:top;">:</td><td><div>session_id_bundjalung=&quot;50456:e07c11df-c786-422e-946f-1cbe799d9866&quot;</div></td></tr><tr><td style="font-weight:bold;vertical-align:top;">HTTP_HOST</td><td style="vertical-align:top;">:</td><td><div>bundjalung.dalang.com.au</div></td></tr><tr><td style="font-weight:bold;vertical-align:top;">HTTP_ORIGIN</td><td style="vertical-align:top;">:</td><td><div>http://bundjalung.dalang.com.au</div></td></tr><tr><td style="font-weight:bold;vertical-align:top;">HTTP_REFERER</td><td style="vertical-align:top;">:</td><td><div>http://bundjalung.dalang.com.au/language/edit_word/3936</div></td></tr><tr><td style="font-weight:bold;vertical-align:top;">HTTP_UPGRADE_INSECURE_REQUESTS</td><td style="vertical-align:top;">:</td><td><div>1</div></td></tr><tr><td style="font-weight:bold;vertical-align:top;">HTTP_USER_AGENT</td><td style="vertical-align:top;">:</td><td><div>Mozilla/5.0 (Macintosh; Intel Mac OS X 10_10_4) AppleWebKit/537.36 (KHTML, like Gecko) Chrome/44.0.2403.125 Safari/537.36</div></td></tr><tr><td style="font-weight:bold;vertical-align:top;">HTTP_X_BLUECOAT_VIA</td><td style="vertical-align:top;">:</td><td><div>6e75dbeedd61bf16</div></td></tr><tr><td style="font-weight:bold;vertical-align:top;">PATH_INFO</td><td style="vertical-align:top;">:</td><td><div>/language/edit_word/3936</div></td></tr><tr><td style="font-weight:bold;vertical-align:top;">PATH_TRANSLATED</td><td style="vertical-align:top;">:</td><td><div>/usr/local/web2py/wsgihandler.py/language/edit_word/3936</div></td></tr><tr><td style="font-weight:bold;vertical-align:top;">QUERY_STRING</td><td style="vertical-align:top;">:</td><td><div></div></td></tr><tr><td style="font-weight:bold;vertical-align:top;">REMOTE_ADDR</td><td style="vertical-align:top;">:</td><td><div>113.197.9.114</div></td></tr><tr><td style="font-weight:bold;vertical-align:top;">REMOTE_PORT</td><td style="vertical-align:top;">:</td><td><div>12915</div></td></tr><tr><td style="font-weight:bold;vertical-align:top;">REQUEST_METHOD</td><td style="vertical-align:top;">:</td><td><div>POST</div></td></tr><tr><td style="font-weight:bold;vertical-align:top;">REQUEST_SCHEME</td><td style="vertical-align:top;">:</td><td><div>http</div></td></tr><tr><td style="font-weight:bold;vertical-align:top;">REQUEST_URI</td><td style="vertical-align:top;">:</td><td><div>/language/edit_word/3936</div></td></tr><tr><td style="font-weight:bold;vertical-align:top;">SCRIPT_FILENAME</td><td style="vertical-align:top;">:</td><td><div>/usr/local/web2py/wsgihandler.py</div></td></tr><tr><td style="font-weight:bold;vertical-align:top;">SCRIPT_NAME</td><td style="vertical-align:top;">:</td><td><div></div></td></tr><tr><td style="font-weight:bold;vertical-align:top;">SERVER_ADDR</td><td style="vertical-align:top;">:</td><td><div>129.94.172.214</div></td></tr><tr><td style="font-weight:bold;vertical-align:top;">SERVER_ADMIN</td><td style="vertical-align:top;">:</td><td><div>cat.kutay@gmail.com</div></td></tr><tr><td style="font-weight:bold;vertical-align:top;">SERVER_NAME</td><td style="vertical-align:top;">:</td><td><div>bundjalung.dalang.com.au</div></td></tr><tr><td style="font-weight:bold;vertical-align:top;">SERVER_PORT</td><td style="vertical-align:top;">:</td><td><div>80</div></td></tr><tr><td style="font-weight:bold;vertical-align:top;">SERVER_PROTOCOL</td><td style="vertical-align:top;">:</td><td><div>HTTP/1.1</div></td></tr><tr><td style="font-weight:bold;vertical-align:top;">SERVER_SIGNATURE</td><td style="vertical-align:top;">:</td><td><div>&lt;address&gt;Apache/2.4.7 (Ubuntu) Server at bundjalung.dalang.com.au Port 80&lt;/address&gt;\n</div></td></tr><tr><td style="font-weight:bold;vertical-align:top;">SERVER_SOFTWARE</td><td style="vertical-align:top;">:</td><td><div>Apache/2.4.7 (Ubuntu)</div></td></tr><tr><td style="font-weight:bold;vertical-align:top;">app_folders</td><td style="vertical-align:top;">:</td><td><div>set([&#x27;/usr/local/web2py/applications/Dharug/&#x27;, &#x27;/usr/local/web2py/applications/Language/&#x27;, &#x27;/usr/local/web2py/applications/Bundjalung/&#x27;, &#x27;/usr/local/web2py/applications/kinship/&#x27;, &#x27;/usr/local/web2py/applications/Wiradjuri/&#x27;])</div></td></tr><tr><td style="font-weight:bold;vertical-align:top;">applications_parent</td><td style="vertical-align:top;">:</td><td><div>/usr/local/web2py</div></td></tr><tr><td style="font-weight:bold;vertical-align:top;">content_length</td><td style="vertical-align:top;">:</td><td><div>3409</div></td></tr><tr><td style="font-weight:bold;vertical-align:top;">content_type</td><td style="vertical-align:top;">:</td><td><div>multipart/form-data; boundary=----WebKitFormBoundaryiMEjG3ggA5r8l3OZ</div></td></tr><tr><td style="font-weight:bold;vertical-align:top;">context_document_root</td><td style="vertical-align:top;">:</td><td><div>/home/Language/</div></td></tr><tr><td style="font-weight:bold;vertical-align:top;">context_prefix</td><td style="vertical-align:top;">:</td><td><div></div></td></tr><tr><td style="font-weight:bold;vertical-align:top;">db_sessions</td><td style="vertical-align:top;">:</td><td><div>set([&#x27;Bundjalung&#x27;, &#x27;kinship&#x27;, &#x27;Language&#x27;, &#x27;Dharug&#x27;])</div></td></tr><tr><td style="font-weight:bold;vertical-align:top;">debugging</td><td style="vertical-align:top;">:</td><td><div>False</div></td></tr><tr><td style="font-weight:bold;vertical-align:top;">document_root</td><td style="vertical-align:top;">:</td><td><div>/home/Language/</div></td></tr><tr><td style="font-weight:bold;vertical-align:top;">domain_application</td><td style="vertical-align:top;">:</td><td><div>Bundjalung</div></td></tr><tr><td style="font-weight:bold;vertical-align:top;">domain_controller</td><td style="vertical-align:top;">:</td><td><div>None</div></td></tr><tr><td style="font-weight:bold;vertical-align:top;">domain_function</td><td style="vertical-align:top;">:</td><td><div>None</div></td></tr><tr><td style="font-weight:bold;vertical-align:top;">gateway_interface</td><td style="vertical-align:top;">:</td><td><div>CGI/1.1</div></td></tr><tr><td style="font-weight:bold;vertical-align:top;">gluon_parent</td><td style="vertical-align:top;">:</td><td><div>/usr/local/web2py</div></td></tr><tr><td style="font-weight:bold;vertical-align:top;">http_accept</td><td style="vertical-align:top;">:</td><td><div>text/html,application/xhtml+xml,application/xml;q=0.9,image/webp,*/*;q=0.8</div></td></tr><tr><td style="font-weight:bold;vertical-align:top;">http_accept_encoding</td><td style="vertical-align:top;">:</td><td><div>gzip, deflate</div></td></tr><tr><td style="font-weight:bold;vertical-align:top;">http_accept_language</td><td style="vertical-align:top;">:</td><td><div>en-US,en;q=0.8,es;q=0.6</div></td></tr><tr><td style="font-weight:bold;vertical-align:top;">http_cache_control</td><td style="vertical-align:top;">:</td><td><div>max-age=0</div></td></tr><tr><td style="font-weight:bold;vertical-align:top;">http_connection</td><td style="vertical-align:top;">:</td><td><div>Keep-Alive</div></td></tr><tr><td style="font-weight:bold;vertical-align:top;">http_cookie</td><td style="vertical-align:top;">:</td><td><div>session_id_bundjalung=&quot;50456:e07c11df-c786-422e-946f-1cbe799d9866&quot;</div></td></tr><tr><td style="font-weight:bold;vertical-align:top;">http_host</td><td style="vertical-align:top;">:</td><td><div>bundjalung.dalang.com.au</div></td></tr><tr><td style="font-weight:bold;vertical-align:top;">http_origin</td><td style="vertical-align:top;">:</td><td><div>http://bundjalung.dalang.com.au</div></td></tr><tr><td style="font-weight:bold;vertical-align:top;">http_referer</td><td style="vertical-align:top;">:</td><td><div>http://bundjalung.dalang.com.au/language/edit_word/3936</div></td></tr><tr><td style="font-weight:bold;vertical-align:top;">http_upgrade_insecure_requests</td><td style="vertical-align:top;">:</td><td><div>1</div></td></tr><tr><td style="font-weight:bold;vertical-align:top;">http_user_agent</td><td style="vertical-align:top;">:</td><td><div>Mozilla/5.0 (Macintosh; Intel Mac OS X 10_10_4) AppleWebKit/537.36 (KHTML, like Gecko) Chrome/44.0.2403.125 Safari/537.36</div></td></tr><tr><td style="font-weight:bold;vertical-align:top;">http_x_bluecoat_via</td><td style="vertical-align:top;">:</td><td><div>6e75dbeedd61bf16</div></td></tr><tr><td style="font-weight:bold;vertical-align:top;">is_jython</td><td style="vertical-align:top;">:</td><td><div>False</div></td></tr><tr><td style="font-weight:bold;vertical-align:top;">is_pypy</td><td style="vertical-align:top;">:</td><td><div>False</div></td></tr><tr><td style="font-weight:bold;vertical-align:top;">is_source</td><td style="vertical-align:top;">:</td><td><div>True</div></td></tr><tr><td style="font-weight:bold;vertical-align:top;">local_hosts</td><td style="vertical-align:top;">:</td><td><div><table><tr><td><div>129.94.172.214</div></td></tr><tr><td><div>::ffff:127.0.0.1</div></td></tr><tr><td><div>::1</div></td></tr><tr><td><div>mindalgali</div></td></tr><tr><td><div>www.dharug.dalang.com.au</div></td></tr><tr><td><div>127.0.1.1</div></td></tr><tr><td><div>mindalgali.cse.unsw.EDU.AU</div></td></tr><tr><td><div>127.0.0.1</div></td></tr></table></div></td></tr><tr><td style="font-weight:bold;vertical-align:top;">mod_wsgi.application_group</td><td style="vertical-align:top;">:</td><td><div>dalang.com.au|</div></td></tr><tr><td style="font-weight:bold;vertical-align:top;">mod_wsgi.callable_object</td><td style="vertical-align:top;">:</td><td><div>application</div></td></tr><tr><td style="font-weight:bold;vertical-align:top;">mod_wsgi.enable_sendfile</td><td style="vertical-align:top;">:</td><td><div>0</div></td></tr><tr><td style="font-weight:bold;vertical-align:top;">mod_wsgi.handler_script</td><td style="vertical-align:top;">:</td><td><div></div></td></tr><tr><td style="font-weight:bold;vertical-align:top;">mod_wsgi.input_chunked</td><td style="vertical-align:top;">:</td><td><div>0</div></td></tr><tr><td style="font-weight:bold;vertical-align:top;">mod_wsgi.listener_host</td><td style="vertical-align:top;">:</td><td><div></div></td></tr><tr><td style="font-weight:bold;vertical-align:top;">mod_wsgi.listener_port</td><td style="vertical-align:top;">:</td><td><div>80</div></td></tr><tr><td style="font-weight:bold;vertical-align:top;">mod_wsgi.process_group</td><td style="vertical-align:top;">:</td><td><div>web2py</div></td></tr><tr><td style="font-weight:bold;vertical-align:top;">mod_wsgi.queue_start</td><td style="vertical-align:top;">:</td><td><div>1438570248929889</div></td></tr><tr><td style="font-weight:bold;vertical-align:top;">mod_wsgi.request_handler</td><td style="vertical-align:top;">:</td><td><div>wsgi-script</div></td></tr><tr><td style="font-weight:bold;vertical-align:top;">mod_wsgi.script_reloading</td><td style="vertical-align:top;">:</td><td><div>1</div></td></tr><tr><td style="font-weight:bold;vertical-align:top;">mod_wsgi.version</td><td style="vertical-align:top;">:</td><td><div><table><tr><td><div>3</div></td></tr><tr><td><div>4</div></td></tr></table></div></td></tr><tr><td style="font-weight:bold;vertical-align:top;">mod_wsgi_application_group</td><td style="vertical-align:top;">:</td><td><div>dalang.com.au|</div></td></tr><tr><td style="font-weight:bold;vertical-align:top;">mod_wsgi_callable_object</td><td style="vertical-align:top;">:</td><td><div>application</div></td></tr><tr><td style="font-weight:bold;vertical-align:top;">mod_wsgi_enable_sendfile</td><td style="vertical-align:top;">:</td><td><div>0</div></td></tr><tr><td style="font-weight:bold;vertical-align:top;">mod_wsgi_handler_script</td><td style="vertical-align:top;">:</td><td><div></div></td></tr><tr><td style="font-weight:bold;vertical-align:top;">mod_wsgi_input_chunked</td><td style="vertical-align:top;">:</td><td><div>0</div></td></tr><tr><td style="font-weight:bold;vertical-align:top;">mod_wsgi_listener_host</td><td style="vertical-align:top;">:</td><td><div></div></td></tr><tr><td style="font-weight:bold;vertical-align:top;">mod_wsgi_listener_port</td><td style="vertical-align:top;">:</td><td><div>80</div></td></tr><tr><td style="font-weight:bold;vertical-align:top;">mod_wsgi_process_group</td><td style="vertical-align:top;">:</td><td><div>web2py</div></td></tr><tr><td style="font-weight:bold;vertical-align:top;">mod_wsgi_queue_start</td><td style="vertical-align:top;">:</td><td><div>1438570248929889</div></td></tr><tr><td style="font-weight:bold;vertical-align:top;">mod_wsgi_request_handler</td><td style="vertical-align:top;">:</td><td><div>wsgi-script</div></td></tr><tr><td style="font-weight:bold;vertical-align:top;">mod_wsgi_script_reloading</td><td style="vertical-align:top;">:</td><td><div>1</div></td></tr><tr><td style="font-weight:bold;vertical-align:top;">mod_wsgi_version</td><td style="vertical-align:top;">:</td><td><div><table><tr><td><div>3</div></td></tr><tr><td><div>4</div></td></tr></table></div></td></tr><tr><td style="font-weight:bold;vertical-align:top;">path_info</td><td style="vertical-align:top;">:</td><td><div>/language/edit_word/3936</div></td></tr><tr><td style="font-weight:bold;vertical-align:top;">path_translated</td><td style="vertical-align:top;">:</td><td><div>/usr/local/web2py/wsgihandler.py/language/edit_word/3936</div></td></tr><tr><td style="font-weight:bold;vertical-align:top;">query_string</td><td style="vertical-align:top;">:</td><td><div></div></td></tr><tr><td style="font-weight:bold;vertical-align:top;">remote_addr</td><td style="vertical-align:top;">:</td><td><div>113.197.9.114</div></td></tr><tr><td style="font-weight:bold;vertical-align:top;">remote_port</td><td style="vertical-align:top;">:</td><td><div>12915</div></td></tr><tr><td style="font-weight:bold;vertical-align:top;">request_method</td><td style="vertical-align:top;">:</td><td><div>POST</div></td></tr><tr><td style="font-weight:bold;vertical-align:top;">request_scheme</td><td style="vertical-align:top;">:</td><td><div>http</div></td></tr><tr><td style="font-weight:bold;vertical-align:top;">request_uri</td><td style="vertical-align:top;">:</td><td><div>/Bundjalung/language/edit_word/3936</div></td></tr><tr><td style="font-weight:bold;vertical-align:top;">script_filename</td><td style="vertical-align:top;">:</td><td><div>/usr/local/web2py/wsgihandler.py</div></td></tr><tr><td style="font-weight:bold;vertical-align:top;">script_name</td><td style="vertical-align:top;">:</td><td><div></div></td></tr><tr><td style="font-weight:bold;vertical-align:top;">server_addr</td><td style="vertical-align:top;">:</td><td><div>129.94.172.214</div></td></tr><tr><td style="font-weight:bold;vertical-align:top;">server_admin</td><td style="vertical-align:top;">:</td><td><div>cat.kutay@gmail.com</div></td></tr><tr><td style="font-weight:bold;vertical-align:top;">server_name</td><td style="vertical-align:top;">:</td><td><div>bundjalung.dalang.com.au</div></td></tr><tr><td style="font-weight:bold;vertical-align:top;">server_port</td><td style="vertical-align:top;">:</td><td><div>80</div></td></tr><tr><td style="font-weight:bold;vertical-align:top;">server_protocol</td><td style="vertical-align:top;">:</td><td><div>HTTP/1.1</div></td></tr><tr><td style="font-weight:bold;vertical-align:top;">server_signature</td><td style="vertical-align:top;">:</td><td><div>&lt;address&gt;Apache/2.4.7 (Ubuntu) Server at bundjalung.dalang.com.au Port 80&lt;/address&gt;\n</div></td></tr><tr><td style="font-weight:bold;vertical-align:top;">server_software</td><td style="vertical-align:top;">:</td><td><div>Apache/2.4.7 (Ubuntu)</div></td></tr><tr><td style="font-weight:bold;vertical-align:top;">web2py_crontype</td><td style="vertical-align:top;">:</td><td><div>soft</div></td></tr><tr><td style="font-weight:bold;vertical-align:top;">web2py_original_uri</td><td style="vertical-align:top;">:</td><td><div>/language/edit_word/3936</div></td></tr><tr><td style="font-weight:bold;vertical-align:top;">web2py_path</td><td style="vertical-align:top;">:</td><td><div>/usr/local/web2py</div></td></tr><tr><td style="font-weight:bold;vertical-align:top;">web2py_version</td><td style="vertical-align:top;">:</td><td><div>2.9.12-stable+timestamp.2015.01.17.06.11.03</div></td></tr><tr><td style="font-weight:bold;vertical-align:top;">wsgi.errors</td><td style="vertical-align:top;">:</td><td><div>&lt;mod_wsgi.Log object at 0x7f26801dbe70&gt;</div></td></tr><tr><td style="font-weight:bold;vertical-align:top;">wsgi.file_wrapper</td><td style="vertical-align:top;">:</td><td><div>&lt;built-in method file_wrapper of mod_wsgi.Adapter object at 0x7f2680f254e0&gt;</div></td></tr><tr><td style="font-weight:bold;vertical-align:top;">wsgi.input</td><td style="vertical-align:top;">:</td><td><div>&lt;mod_wsgi.Input object at 0x7f26801dbeb0&gt;</div></td></tr><tr><td style="font-weight:bold;vertical-align:top;">wsgi.multiprocess</td><td style="vertical-align:top;">:</td><td><div>True</div></td></tr><tr><td style="font-weight:bold;vertical-align:top;">wsgi.multithread</td><td style="vertical-align:top;">:</td><td><div>True</div></td></tr><tr><td style="font-weight:bold;vertical-align:top;">wsgi.run_once</td><td style="vertical-align:top;">:</td><td><div>False</div></td></tr><tr><td style="font-weight:bold;vertical-align:top;">wsgi.url_scheme</td><td style="vertical-align:top;">:</td><td><div>http</div></td></tr><tr><td style="font-weight:bold;vertical-align:top;">wsgi.version</td><td style="vertical-align:top;">:</td><td><div><table><tr><td><div>1</div></td></tr><tr><td><div>0</div></td></tr></table></div></td></tr><tr><td style="font-weight:bold;vertical-align:top;">wsgi_errors</td><td style="vertical-align:top;">:</td><td><div>&lt;mod_wsgi.Log object at 0x7f26801dbe70&gt;</div></td></tr><tr><td style="font-weight:bold;vertical-align:top;">wsgi_file_wrapper</td><td style="vertical-align:top;">:</td><td><div>&lt;built-in method file_wrapper of mod_wsgi.Adapter object at 0x7f2680f254e0&gt;</div></td></tr><tr><td style="font-weight:bold;vertical-align:top;">wsgi_input</td><td style="vertical-align:top;">:</td><td><div>&lt;mod_wsgi.Input object at 0x7f26801dbeb0&gt;</div></td></tr><tr><td style="font-weight:bold;vertical-align:top;">wsgi_multiprocess</td><td style="vertical-align:top;">:</td><td><div>True</div></td></tr><tr><td style="font-weight:bold;vertical-align:top;">wsgi_multithread</td><td style="vertical-align:top;">:</td><td><div>True</div></td></tr><tr><td style="font-weight:bold;vertical-align:top;">wsgi_run_once</td><td style="vertical-align:top;">:</td><td><div>False</div></td></tr><tr><td style="font-weight:bold;vertical-align:top;">wsgi_url_scheme</td><td style="vertical-align:top;">:</td><td><div>http</div></td></tr><tr><td style="font-weight:bold;vertical-align:top;">wsgi_version</td><td style="vertical-align:top;">:</td><td><div><table><tr><td><div>1</div></td></tr><tr><td><div>0</div></td></tr></table></div></td></tr></table></div></td></tr><tr><td style="font-weight:bold;vertical-align:top;">extension</td><td style="vertical-align:top;">:</td><td><div>html</div></td></tr><tr><td style="font-weight:bold;vertical-align:top;">folder</td><td style="vertical-align:top;">:</td><td><div>/usr/local/web2py/applications/Bundjalung/</div></td></tr><tr><td style="font-weight:bold;vertical-align:top;">function</td><td style="vertical-align:top;">:</td><td><div>edit_word</div></td></tr><tr><td style="font-weight:bold;vertical-align:top;">global_settings</td><td style="vertical-align:top;">:</td><td><div><table><tr><td style="font-weight:bold;vertical-align:top;">app_folders</td><td style="vertical-align:top;">:</td><td><div>set([&#x27;/usr/local/web2py/applications/Dharug/&#x27;, &#x27;/usr/local/web2py/applications/Language/&#x27;, &#x27;/usr/local/web2py/applications/Bundjalung/&#x27;, &#x27;/usr/local/web2py/applications/kinship/&#x27;, &#x27;/usr/local/web2py/applications/Wiradjuri/&#x27;])</div></td></tr><tr><td style="font-weight:bold;vertical-align:top;">applications_parent</td><td style="vertical-align:top;">:</td><td><div>/usr/local/web2py</div></td></tr><tr><td style="font-weight:bold;vertical-align:top;">db_sessions</td><td style="vertical-align:top;">:</td><td><div>set([&#x27;Bundjalung&#x27;, &#x27;kinship&#x27;, &#x27;Language&#x27;, &#x27;Dharug&#x27;])</div></td></tr><tr><td style="font-weight:bold;vertical-align:top;">debugging</td><td style="vertical-align:top;">:</td><td><div>False</div></td></tr><tr><td style="font-weight:bold;vertical-align:top;">gluon_parent</td><td style="vertical-align:top;">:</td><td><div>/usr/local/web2py</div></td></tr><tr><td style="font-weight:bold;vertical-align:top;">is_jython</td><td style="vertical-align:top;">:</td><td><div>False</div></td></tr><tr><td style="font-weight:bold;vertical-align:top;">is_pypy</td><td style="vertical-align:top;">:</td><td><div>False</div></td></tr><tr><td style="font-weight:bold;vertical-align:top;">is_source</td><td style="vertical-align:top;">:</td><td><div>True</div></td></tr><tr><td style="font-weight:bold;vertical-align:top;">local_hosts</td><td style="vertical-align:top;">:</td><td><div><table><tr><td><div>129.94.172.214</div></td></tr><tr><td><div>::ffff:127.0.0.1</div></td></tr><tr><td><div>::1</div></td></tr><tr><td><div>mindalgali</div></td></tr><tr><td><div>www.dharug.dalang.com.au</div></td></tr><tr><td><div>127.0.1.1</div></td></tr><tr><td><div>mindalgali.cse.unsw.EDU.AU</div></td></tr><tr><td><div>127.0.0.1</div></td></tr></table></div></td></tr><tr><td style="font-weight:bold;vertical-align:top;">web2py_crontype</td><td style="vertical-align:top;">:</td><td><div>soft</div></td></tr><tr><td style="font-weight:bold;vertical-align:top;">web2py_version</td><td style="vertical-align:top;">:</td><td><div>2.9.12-stable+timestamp.2015.01.17.06.11.03</div></td></tr></table></div></td></tr><tr><td style="font-weight:bold;vertical-align:top;">is_https</td><td style="vertical-align:top;">:</td><td><div>False</div></td></tr><tr><td style="font-weight:bold;vertical-align:top;">is_local</td><td style="vertical-align:top;">:</td><td><div>False</div></td></tr><tr><td style="font-weight:bold;vertical-align:top;">is_restful</td><td style="vertical-align:top;">:</td><td><div>False</div></td></tr><tr><td style="font-weight:bold;vertical-align:top;">is_sheduler</td><td style="vertical-align:top;">:</td><td><div>None</div></td></tr><tr><td style="font-weight:bold;vertical-align:top;">is_shell</td><td style="vertical-align:top;">:</td><td><div>None</div></td></tr><tr><td style="font-weight:bold;vertical-align:top;">now</td><td style="vertical-align:top;">:</td><td><div>datetime.datetime(2015, 8, 3, 12, 50, 48, 930462)</div></td></tr><tr><td style="font-weight:bold;vertical-align:top;">url</td><td style="vertical-align:top;">:</td><td><div>/language/edit_word/3936</div></td></tr><tr><td style="font-weight:bold;vertical-align:top;">utcnow</td><td style="vertical-align:top;">:</td><td><div>datetime.datetime(2015, 8, 3, 2, 50, 48, 930483)</div></td></tr><tr><td style="font-weight:bold;vertical-align:top;">uuid</td><td style="vertical-align:top;">:</td><td><div>Bundjalung/113.197.9.114.2015-08-03.12-50-48.4c5ca8ec-720a-4aa6-bbab-83cd5c86b3fc</div></td></tr><tr><td style="font-weight:bold;vertical-align:top;">wsgi</td><td style="vertical-align:top;">:</td><td><div>&lt;gluon.main.LazyWSGI object at 0x7f2680263810&gt;</div></td></tr></table></div>'
tRp62
sS'frames'
p63
(lp64
(dp65
S'file'
p66
S'/usr/local/web2py/gluon/restricted.py'
p67
sS'dump'
p68
(dp69
S'environment'
p70
S"{'A': <class 'gluon.html.A'>, 'ANY_OF': <class 'gluon.validators.ANY_OF'>, 'ASSIGNJS': <function ASSIGNJS>, 'Auth': <class 'gluon.tools.Auth'>, 'B': <class 'gluon.html.B'>, 'BEAUTIFY': <class 'gluon.html.BEAUTIFY'>, 'BODY': <class 'gluon.html.BODY'>, 'BR': <class 'gluon.html.BR'>, 'BUTTON': <class 'gluon.html.BUTTON'>, 'CAT': <class 'gluon.html.CAT'>, ...}"
p71
sS'ccode'
p72
S'<code object <module> at 0x7f268036b6b0, file "/...ions/Bundjalung/controllers/language.py", line 1>'
p73
ssS'lnum'
p74
I224
sS'lines'
p75
(dp76
I224
S'        exec ccode in environment'
p77
sI225
S'    except HTTP:'
p78
sI226
S'        raise'
p79
sI227
S'    except RestrictedError:'
p80
sI228
S'        # do not encapsulate (obfuscate) the original RestrictedError'
p81
sI219
S'    try:'
p82
sI220
S'        if isinstance(code, types.CodeType):'
p83
sI221
S'            ccode = code'
p84
sI222
S'        else:'
p85
sI223
S'            ccode = compile2(code, layer)'
p86
ssS'call'
p87
S"(code='import string\\n\\n# NOte the existence of languageL...ist\\n\\n\\nresponse._vars=response._caller(edit_word)\\n', environment={'A': <class 'gluon.html.A'>, 'ANY_OF': <class 'gluon.validators.ANY_OF'>, 'ASSIGNJS': <function ASSIGNJS>, 'Auth': <class 'gluon.tools.Auth'>, 'B': <class 'gluon.html.B'>, 'BEAUTIFY': <class 'gluon.html.BEAUTIFY'>, 'BODY': <class 'gluon.html.BODY'>, 'BR': <class 'gluon.html.BR'>, 'BUTTON': <class 'gluon.html.BUTTON'>, 'CAT': <class 'gluon.html.CAT'>, ...}, layer='/usr/local/web2py/applications/Bundjalung/controllers/language.py')"
p88
sS'func'
p89
S'restricted'
p90
sa(dp91
g66
S'/usr/local/web2py/applications/Bundjalung/controllers/language.py'
p92
sg68
(dp93
sg74
I320
sg75
(dp94
I309
S'\tif word.dialect.strip()=="": word.dialect="All"'
p95
sI310
S'# if only one dialect'
p96
sI311
S' \tif word.dialect!="" and word.dialect.find(\',\')<0:'
p97
sI312
S'\t\tcolour=db(db.dialect.name==word.dialect).select()'
p98
sI313
S'\t\tif colour: word.color=colour[0].color'
p99
sI314
S"\t\telse: word.color='black'"
p100
sI315
S'\telse:'
p101
sI316
S"\t\tword.color='black'"
p102
sI317
S'        return word, examplelist'
p103
sI318
S''
ssg87
S'()'
p104
sg89
S'<module>'
p105
sa(dp106
g66
S'/usr/local/web2py/gluon/globals.py'
p107
sg68
(dp108
S'self'
p109
S'undefined'
p110
sS'f'
S'<function edit_word>'
p111
ssg74
I393
sg75
(dp112
I388
S"        self.flash = ''            # used by the default view layout"
p113
sI389
S'        self.meta = Storage()      # used by web2py_ajax.html'
p114
sI390
S'        self.menu = []             # used by the default view layout'
p115
sI391
S'        self.files = []            # used by web2py_ajax.html'
p116
sI392
S'        self._vars = None'
p117
sI393
S'        self._caller = lambda f: f()'
p118
sI394
S'        self._view_environment = None'
p119
sI395
S'        self._custom_commit = None'
p120
sI396
S'        self._custom_rollback = None'
p121
sI397
S"        self.generic_patterns = ['*']"
p122
ssg87
S'(f=<function edit_word>)'
p123
sg89
S'<lambda>'
p124
sa(dp125
g66
S'/usr/local/web2py/gluon/tools.py'
p126
sg68
(dp127
S'action'
p128
S'<function edit_word>'
p129
sS'a'
S'()'
p130
sS'b'
g21
ssg74
I3444
sg75
(dp131
I3439
S'                    flag = condition'
p132
sI3440
S'                if not flag:'
p133
sI3441
S'                    current.session.flash = self.messages.access_denied'
p134
sI3442
S'                    return call_or_redirect('
p135
sI3443
S'                        self.settings.on_failed_authorization)'
p136
sI3444
S'                return action(*a, **b)'
p137
sI3445
S'            f.__doc__ = action.__doc__'
p138
sI3446
S'            f.__name__ = action.__name__'
p139
sI3447
S'            f.__dict__.update(action.__dict__)'
p140
sI3448
S'            return f'
p141
ssg87
S'(*a=(), **b={})'
p142
sg89
S'f'
sa(dp143
g66
S'/usr/local/web2py/applications/Bundjalung/controllers/language.py'
p144
sg68
(dp145
S'c'
g110
sS'f'
g110
sS'global request'
p146
S"<Storage {'_vars': <Storage {'Category': '1 peop...': '/usr/local/web2py/applications/Bundjalung/'}>"
p147
sS'args'
p148
g110
sS'global URL'
p149
S'<function URL>'
p150
sS'builtinnext'
p151
S'<built-in function next>'
p152
sS'r'
g110
sS'word_id'
p153
S'3936L'
p154
ssg74
I254
sg75
(dp155
I256
S'            form = crud.update(w, word, deletable=False, onaccept=crud.archive,'
p156
sI257
S"                       next=URL(r=request,c='language', f='view_word',args=word_id))"
p157
sI258
S'    return dict(form=form,word=word,examples=examples)'
p158
sI249
S'    if word:'
p159
sI250
S'\tword_id=word.id'
p160
sI251
S"    \tif auth.has_membership(auth.id_group('developer')):"
p161
sI252
S''
sI253
S'\t    form = crud.update(w, word, deletable=True, onaccept=crud.archive,'
p162
sI254
S"                       next=URL(r=request,c='language', f='view_word',args=word_id))"
p163
sI255
S'    \telse:'
p164
ssg87
S'()'
p165
sg89
S'edit_word'
p166
sa(dp167
g66
S'/usr/local/web2py/gluon/tools.py'
p168
sg68
(dp169
S'table'
p170
S'<Table Bundjalung (id,Category,Language_Word,Par...,Copmanhurst,RelatedWord,Image,SoundFile,Lesson)>'
p171
sS'table._tablename'
p172
S"'Bundjalung'"
p173
sS'global callback'
p174
S'<function callback>'
p175
sS'form'
p176
S'<gluon.sqlhtml.SQLFORM object>'
p177
sS'onaccept'
p178
S'<function archive>'
p179
ssg74
I4098
sg75
(dp180
I4096
S'                callback(ondelete, form, table._tablename)'
p181
sI4097
S'            response.flash = message'
p182
sI4098
S'            callback(onaccept, form, table._tablename)'
p183
sI4099
S"            if not request.extension in ('html', 'load'):"
p184
sI4100
S"                raise HTTP(200, 'RECORD CREATED/UPDATED')"
p185
sI4101
S'            if isinstance(next, (list, tuple)):  # fix issue with 2.6'
p186
sI4102
S'                next = next[0]'
p187
sI4093
S'            if request.vars.delete_this_record:'
p188
sI4094
S'                self.deleted = True'
p189
sI4095
S'                message = self.messages.record_deleted'
p190
ssg87
S"(self=<gluon.tools.Crud object>, table=<Table Bundjalung (id,Category,Language_Word,Par...,Copmanhurst,RelatedWord,Image,SoundFile,Lesson)>, record=<Row {'Category': '1 people 2 body pat', 'Search... 'Image': '', 'RelatedWord': ' ', 'Lesson': ' '}>, next='/language/view_word/3936', onvalidation=[], onaccept=<function archive>, ondelete=<Storage {}>, log='Record %(id)s updated', message=<lazyT 'Record Updated'>, deletable=True, formname=<function <lambda>>, **attributes={'hidden': {'_next': '/language/view_word/3936', 'id': 3936L}})"
p191
sg89
S'update'
p192
sa(dp193
g66
S'/usr/local/web2py/gluon/tools.py'
p194
sg68
(dp195
S'action'
p196
S'<function archive>'
p197
sS'actions'
p198
S'[<function archive>]'
p199
sS'form'
p200
S'<gluon.sqlhtml.SQLFORM object>'
p201
ssg74
I86
sg75
(dp202
I81
S'    if actions:'
p203
sI82
S'        if tablename and isinstance(actions, dict):'
p204
sI83
S'            actions = actions.get(tablename, [])'
p205
sI84
S'        if not isinstance(actions, (list, tuple)):'
p206
sI85
S'            actions = [actions]'
p207
sI86
S'        [action(form) for action in actions]'
p208
sI87
S''
sI88
S''
sI89
S'def validators(*a):'
p209
sI90
S'    b = []'
p210
ssg87
S"(actions=[<function archive>], form=<gluon.sqlhtml.SQLFORM object>, tablename='Bundjalung')"
p211
sg89
S'callback'
p212
sa(dp213
g66
S'/usr/local/web2py/gluon/tools.py'
p214
sg68
(dp215
S'current_record'
p216
S"'current_record'"
p217
ssg74
I3997
sg75
(dp218
I4000
S'        self,'
p219
sI4001
S'        table,'
p220
sI3992
S'                           for name in self.db.tables])'
p221
sI3993
S''
sI3994
S'    @staticmethod'
p222
sI3995
S"    def archive(form, archive_table=None, current_record='current_record'):"
p223
sI3996
S'        return Auth.archive(form, archive_table=archive_table,'
p224
sI3997
S'                            current_record=current_record)'
p225
sI3998
S''
sI3999
S'    def update('
p226
ssg87
S"(form=<gluon.sqlhtml.SQLFORM object>, archive_table=None, current_record='current_record')"
p227
sg89
S'archive'
p228
sa(dp229
g66
S'/usr/local/web2py/gluon/tools.py'
p230
sg68
(dp231
S'archive_table.insert'
p232
S'<bound method Table.insert of <Table Bundjalung_...Copmanhurst,RelatedWord,Image,SoundFile,Lesson)>>'
p233
sS'archive_table'
p234
S'<Table Bundjalung_archive (id,current_record,Cat...,Copmanhurst,RelatedWord,Image,SoundFile,Lesson)>'
p235
sS'new_record'
p236
S'{\'Category\': \'1 people 2 body pat\', \'Comment\': "See also mibiny, primary meaning appears to be \'...y (mebbon) as \'drowned man\', probably \'Aboriginal", \'Condamine_Upper_Clarence\': \' Gd:Geyt face, person, know;  \', \'Copmanhurst\': \'  \', \'English\': \'Aboriginal man, person, face, know (Wi), Aboriginal(s) (M)\', \'Gold_Coast_Tweed\': \' Y:Sha:Culhm mibiny Aboriginal man; Y:Holm man (...oomera:Scebbon man; GC:Coomera:police mebbon drow\', \'Image\': \'\', \'Language_Word\': \'mibiny\', \'Lesson\': \' \', \'Lower_Richmond\': " Bj:Holm:Fergn mibi????, poss. from *mi \'eye\' (c...hanggati mi:) and -bi????; Bj:Holm:Fergn mibin;  ", ...}'
p237
sS'builtinid'
p238
S'<built-in function id>'
p239
ssg74
I3828
sg75
(dp240
I3823
S'                    new_record[fieldname] = form.vars[fieldname]'
p241
sI3824
S'                elif form.record and fieldname in form.record:'
p242
sI3825
S'                    new_record[fieldname] = form.record[fieldname]'
p243
sI3826
S'        if fields:'
p244
sI3827
S'            new_record.update(fields)'
p245
sI3828
S'        id = archive_table.insert(**new_record)'
p246
sI3829
S'        return id'
p247
sI3830
S''
sI3831
S'    def wiki(self,'
p248
sI3832
S'             slug=None,'
p249
ssg87
S"(form=<gluon.sqlhtml.SQLFORM object>, archive_table=<Table Bundjalung_archive (id,current_record,Cat...,Copmanhurst,RelatedWord,Image,SoundFile,Lesson)>, current_record='current_record', archive_current=False, fields=None)"
p250
sg89
g228
sa(dp251
g66
S'/usr/local/web2py/gluon/dal/objects.py'
p252
sg68
(dp253
S'self._listify'
p254
S'<bound method Table._listify of <Table Bundjalun...Copmanhurst,RelatedWord,Image,SoundFile,Lesson)>>'
p255
sS'fields'
p256
S'{\'Category\': \'1 people 2 body pat\', \'Comment\': "See also mibiny, primary meaning appears to be \'...y (mebbon) as \'drowned man\', probably \'Aboriginal", \'Condamine_Upper_Clarence\': \' Gd:Geyt face, person, know;  \', \'Copmanhurst\': \'  \', \'English\': \'Aboriginal man, person, face, know (Wi), Aboriginal(s) (M)\', \'Gold_Coast_Tweed\': \' Y:Sha:Culhm mibiny Aboriginal man; Y:Holm man (...oomera:Scebbon man; GC:Coomera:police mebbon drow\', \'Image\': \'\', \'Language_Word\': \'mibiny\', \'Lesson\': \' \', \'Lower_Richmond\': " Bj:Holm:Fergn mibi????, poss. from *mi \'eye\' (c...hanggati mi:) and -bi????; Bj:Holm:Fergn mibin;  ", ...}'
p257
sS'self'
p258
S'<Table Bundjalung_archive (id,current_record,Cat...,Copmanhurst,RelatedWord,Image,SoundFile,Lesson)>'
p259
sS'ret'
p260
g110
sS'self._db._adapter'
p261
S'<gluon.dal.adapters.mysql.MySQLAdapter object>'
p262
sS'self._db._adapter.insert'
p263
S'<bound method MySQLAdapter.insert of <gluon.dal.adapters.mysql.MySQLAdapter object>>'
p264
sS'self._db'
p265
S'<DAL uri="mysql:******@localhost/language">'
p266
ssg74
I724
sg75
(dp267
I719
S''
sI720
S'    def insert(self, **fields):'
p268
sI721
S'        fields = self._defaults(fields)'
p269
sI722
S'        self._attempt_upload(fields)'
p270
sI723
S'        if any(f(fields) for f in self._before_insert): return 0'
p271
sI724
S'        ret =  self._db._adapter.insert(self, self._listify(fields))'
p272
sI725
S'        if ret and self._after_insert:'
p273
sI726
S'            fields = Row(fields)'
p274
sI727
S'            [f(fields,ret) for f in self._after_insert]'
p275
sI728
S'        return ret'
p276
ssg87
S'(self=<Table Bundjalung_archive (id,current_record,Cat...,Copmanhurst,RelatedWord,Image,SoundFile,Lesson)>, **fields={\'Category\': \'1 people 2 body pat\', \'Comment\': "See also mibiny, primary meaning appears to be \'...y (mebbon) as \'drowned man\', probably \'Aboriginal", \'Condamine_Upper_Clarence\': \' Gd:Geyt face, person, know;  \', \'Copmanhurst\': \'  \', \'English\': \'Aboriginal man, person, face, know (Wi), Aboriginal(s) (M)\', \'Gold_Coast_Tweed\': \' Y:Sha:Culhm mibiny Aboriginal man; Y:Holm man (...oomera:Scebbon man; GC:Coomera:police mebbon drow\', \'Image\': \'\', \'Language_Word\': \'mibiny\', \'Lesson\': \' \', \'Lower_Richmond\': " Bj:Holm:Fergn mibi????, poss. from *mi \'eye\' (c...hanggati mi:) and -bi????; Bj:Holm:Fergn mibin;  ", ...})'
p277
sg89
S'insert'
p278
sa(dp279
g66
S'/usr/local/web2py/gluon/dal/adapters/base.py'
p280
sg68
(dp281
S'e'
S'OperationalError(1054, "Unknown column \'Lesson\' in \'field list\'")'
p282
ssg74
I715
sg75
(dp283
I710
S'            self.execute(query)'
p284
sI711
S'        except Exception:'
p285
sI712
S'            e = sys.exc_info()[1]'
p286
sI713
S"            if hasattr(table,'_on_insert_error'):"
p287
sI714
S'                return table._on_insert_error(table,fields,e)'
p288
sI715
S'            raise e'
p289
sI716
S"        if hasattr(table, '_primarykey'):"
p290
sI717
S'            mydict = dict([(k[0].name, k[1]) for k in fields if k[0].name in table._primarykey])'
p291
sI718
S'            if mydict != {}:'
p292
sI719
S'                return mydict'
p293
ssg87
S'(self=<gluon.dal.adapters.mysql.MySQLAdapter object>, table=<Table Bundjalung_archive (id,current_record,Cat...,Copmanhurst,RelatedWord,Image,SoundFile,Lesson)>, fields=[(<gluon.dal.objects.Field object>, \'1 people 2 body pat\'), (<gluon.dal.objects.Field object>, "See also mibiny, primary meaning appears to be \'...y (mebbon) as \'drowned man\', probably \'Aboriginal"), (<gluon.dal.objects.Field object>, \' \'), (<gluon.dal.objects.Field object>, \'Aboriginal man ; person ; face ; know (Wi) ; Aboriginal(s) (M)\'), (<gluon.dal.objects.Field object>, \'  \'), (<gluon.dal.objects.Field object>, 3936L), (<gluon.dal.objects.Field object>, \'mibiny\'), (<gluon.dal.objects.Field object>, \'\'), (<gluon.dal.objects.Field object>, \'noun\'), (<gluon.dal.objects.Field object>, \'  \'), (<gluon.dal.objects.Field object>, \' Y:Sha:Culhm mibiny Aboriginal man; Y:Holm man (...oomera:Scebbon man; GC:Coomera:police mebbon drow\'), (<gluon.dal.objects.Field object>, " Bj:Holm:Fergn mibi????, poss. from *mi \'eye\' (c...hanggati mi:) and -bi????; Bj:Holm:Fergn mibin;  "), (<gluon.dal.objects.Field object>, \' \'), (<gluon.dal.objects.Field object>, \'Aboriginal man, person, face, know (Wi), Aboriginal(s) (M)\'), (<gluon.dal.objects.Field object>, \' Wa:Crowl face;  \'), (<gluon.dal.objects.Field object>, \' \'), (<gluon.dal.objects.Field object>, \' Gd:Geyt face, person, know;  \')])'
p294
sg89
g278
sasS'pyver'
p295
S'Python 2.7.6: /usr/bin/python (prefix: /usr)'
p296
sS'session'
p297
g61
(S's\xff\t\x00\x00<div><table><tr><td style="font-weight:bold;vertical-align:top;">auth</td><td style="vertical-align:top;">:</td><td><div><table><tr><td style="font-weight:bold;vertical-align:top;">expiration</td><td style="vertical-align:top;">:</td><td><div>3600</div></td></tr><tr><td style="font-weight:bold;vertical-align:top;">hmac_key</td><td style="vertical-align:top;">:</td><td><div>633db322-6a43-433c-93e8-44688bdbb193</div></td></tr><tr><td style="font-weight:bold;vertical-align:top;">last_visit</td><td style="vertical-align:top;">:</td><td><div>datetime.datetime(2015, 8, 3, 12, 48, 4, 151620)</div></td></tr><tr><td style="font-weight:bold;vertical-align:top;">remember_me</td><td style="vertical-align:top;">:</td><td><div>False</div></td></tr><tr><td style="font-weight:bold;vertical-align:top;">user</td><td style="vertical-align:top;">:</td><td><div><table><tr><td style="font-weight:bold;vertical-align:top;">Role_Name</td><td style="vertical-align:top;">:</td><td><div>teacher</div></td></tr><tr><td style="font-weight:bold;vertical-align:top;">email</td><td style="vertical-align:top;">:</td><td><div>ckutay@cities.org.au</div></td></tr><tr><td style="font-weight:bold;vertical-align:top;">first_name</td><td style="vertical-align:top;">:</td><td><div>Cat</div></td></tr><tr><td style="font-weight:bold;vertical-align:top;">id</td><td style="vertical-align:top;">:</td><td><div>1L</div></td></tr><tr><td style="font-weight:bold;vertical-align:top;">last_name</td><td style="vertical-align:top;">:</td><td><div>Kutay</div></td></tr><tr><td style="font-weight:bold;vertical-align:top;">registration_id</td><td style="vertical-align:top;">:</td><td><div>0L</div></td></tr><tr><td style="font-weight:bold;vertical-align:top;">registration_key</td><td style="vertical-align:top;">:</td><td><div></div></td></tr><tr><td style="font-weight:bold;vertical-align:top;">reset_password_key</td><td style="vertical-align:top;">:</td><td><div></div></td></tr><tr><td style="font-weight:bold;vertical-align:top;">username</td><td style="vertical-align:top;">:</td><td><div>cat.kutay</div></td></tr></table></div></td></tr><tr><td style="font-weight:bold;vertical-align:top;">user_groups</td><td style="vertical-align:top;">:</td><td><div><table><tr><td style="font-weight:bold;vertical-align:top;">1</td><td style="vertical-align:top;">:</td><td><div>developer</div></td></tr></table></div></td></tr></table></div></td></tr><tr><td style="font-weight:bold;vertical-align:top;">flash</td><td style="vertical-align:top;">:</td><td><div>None</div></td></tr></table></div>'
tRp298
sS'etype'
p299
S"<class '_mysql_exceptions.OperationalError'>"
p300
sS'date'
p301
S'Mon Aug  3 12:50:49 2015'
p302
sS'response'
p303
g61
(S'sJ0\x00\x00<div><table><tr><td style="font-weight:bold;vertical-align:top;">body</td><td style="vertical-align:top;">:</td><td><div>&lt;cStringIO.StringO object at 0x7f2680264500&gt;</div></td></tr><tr><td style="font-weight:bold;vertical-align:top;">cookies</td><td style="vertical-align:top;">:</td><td><div><table><tr><td style="font-weight:bold;vertical-align:top;">session_id_bundjalung</td><td style="vertical-align:top;">:</td><td><div>50456:e07c11df-c786-422e-946f-1cbe799d9866<table><tr><td style="font-weight:bold;vertical-align:top;">comment</td><td style="vertical-align:top;">:</td><td><div></div></td></tr><tr><td style="font-weight:bold;vertical-align:top;">domain</td><td style="vertical-align:top;">:</td><td><div></div></td></tr><tr><td style="font-weight:bold;vertical-align:top;">expires</td><td style="vertical-align:top;">:</td><td><div></div></td></tr><tr><td style="font-weight:bold;vertical-align:top;">httponly</td><td style="vertical-align:top;">:</td><td><div></div></td></tr><tr><td style="font-weight:bold;vertical-align:top;">max-age</td><td style="vertical-align:top;">:</td><td><div></div></td></tr><tr><td style="font-weight:bold;vertical-align:top;">path</td><td style="vertical-align:top;">:</td><td><div>/</div></td></tr><tr><td style="font-weight:bold;vertical-align:top;">secure</td><td style="vertical-align:top;">:</td><td><div></div></td></tr><tr><td style="font-weight:bold;vertical-align:top;">version</td><td style="vertical-align:top;">:</td><td><div></div></td></tr></table></div></td></tr></table></div></td></tr><tr><td style="font-weight:bold;vertical-align:top;">delimiters</td><td style="vertical-align:top;">:</td><td><div><table><tr><td><div>{{</div></td></tr><tr><td><div>}}</div></td></tr></table></div></td></tr><tr><td style="font-weight:bold;vertical-align:top;">files</td><td style="vertical-align:top;">:</td><td><div><table><tr><td><div>/Bundjalung/static/plugin_multiselect/jquery.dimensions.js</div></td></tr><tr><td><div>/Bundjalung/static/plugin_multiselect/jquery.multiselect.js</div></td></tr><tr><td><div>/Bundjalung/static/plugin_multiselect/jquery.multiselect.css</div></td></tr></table></div></td></tr><tr><td style="font-weight:bold;vertical-align:top;">flash</td><td style="vertical-align:top;">:</td><td><div>Record Updated</div></td></tr><tr><td style="font-weight:bold;vertical-align:top;">form_label_separator</td><td style="vertical-align:top;">:</td><td><div>: </div></td></tr><tr><td style="font-weight:bold;vertical-align:top;">formstyle</td><td style="vertical-align:top;">:</td><td><div>table3cols</div></td></tr><tr><td style="font-weight:bold;vertical-align:top;">generic_patterns</td><td style="vertical-align:top;">:</td><td><div><table><tr><td><div>*</div></td></tr></table></div></td></tr><tr><td style="font-weight:bold;vertical-align:top;">headers</td><td style="vertical-align:top;">:</td><td><div><table><tr><td style="font-weight:bold;vertical-align:top;">X-Powered-By</td><td style="vertical-align:top;">:</td><td><div>web2py</div></td></tr></table></div></td></tr><tr><td style="font-weight:bold;vertical-align:top;">menu</td><td style="vertical-align:top;">:</td><td><div><table></table></div></td></tr><tr><td style="font-weight:bold;vertical-align:top;">menuAbout</td><td style="vertical-align:top;">:</td><td><div><table><tr><td><div><table><tr><td><div>People</div></td></tr><tr><td><div>False</div></td></tr><tr><td><div>/plugin_wiki/page/people</div></td></tr></table></div></td></tr><tr><td><div><table><tr><td><div>Traditional country</div></td></tr><tr><td><div>False</div></td></tr><tr><td><div>/plugin_wiki/page/traditional_country</div></td></tr></table></div></td></tr><tr><td><div><table><tr><td><div>Language background</div></td></tr><tr><td><div>False</div></td></tr><tr><td><div>/plugin_wiki/page/language_background</div></td></tr></table></div></td></tr><tr><td><div><table><tr><td><div>Outline of the language</div></td></tr><tr><td><div>False</div></td></tr><tr><td><div>/plugin_wiki/page/outline_of_the_language</div></td></tr></table></div></td></tr><tr><td><div><table><tr><td><div>Outline of resources</div></td></tr><tr><td><div>False</div></td></tr><tr><td><div>/plugin_wiki/page/outline_of_resources</div></td></tr></table></div></td></tr><tr><td><div><table><tr><td><div>History of the project</div></td></tr><tr><td><div>False</div></td></tr><tr><td><div>/plugin_wiki/page/history</div></td></tr></table></div></td></tr></table></div></td></tr><tr><td style="font-weight:bold;vertical-align:top;">menuLogin</td><td style="vertical-align:top;">:</td><td><div><table><tr><td><div><table><tr><td><div>Logout</div></td></tr><tr><td><div>False</div></td></tr><tr><td><div>/user/logout</div></td></tr></table></div></td></tr></table></div></td></tr><tr><td style="font-weight:bold;vertical-align:top;">menuResource</td><td style="vertical-align:top;">:</td><td><div><table><tr><td><div><table><tr><td><div>Dictionary Book</div></td></tr><tr><td><div>False</div></td></tr><tr><td><div>/plugin_wiki/page/dictionary</div></td></tr></table></div></td></tr><tr><td><div><table><tr><td><div>Language Resources</div></td></tr><tr><td><div>False</div></td></tr><tr><td><div>/plugin_wiki/resources</div></td></tr></table></div></td></tr><tr><td><div><table><tr><td><div>Written examples</div></td></tr><tr><td><div>False</div></td></tr><tr><td><div>/plugin_wiki/page/written_examples_of_the_language</div></td></tr></table></div></td></tr><tr><td><div><table><tr><td><div>Work Sheets</div></td></tr><tr><td><div>False</div></td></tr><tr><td><div>/learning/pages</div></td></tr></table></div></td></tr></table></div></td></tr><tr><td style="font-weight:bold;vertical-align:top;">menuTop</td><td style="vertical-align:top;">:</td><td><div><table><tr><td><div><table><tr><td><div>Home</div></td></tr><tr><td><div>False</div></td></tr><tr><td><div>/plugin_wiki/index.html</div></td></tr></table></div></td></tr><tr><td><div><table><tr><td><div>About Us</div></td></tr><tr><td><div>False</div></td></tr><tr><td><div>/plugin_wiki/page/about_us</div></td></tr></table></div></td></tr><tr><td><div><table><tr><td><div>Dictionary</div></td></tr><tr><td><div>False</div></td></tr><tr><td><div>/language/dictionary</div></td></tr></table></div></td></tr><tr><td><div><table><tr><td><div>Resources</div></td></tr><tr><td><div>False</div></td></tr><tr><td><div>/plugin_wiki/resources</div></td></tr></table></div></td></tr><tr><td><div><table><tr><td><div>Accept Regos</div></td></tr><tr><td><div>False</div></td></tr><tr><td><div>/appadmin/update/db.auth_user/registration_key/pending</div></td></tr></table></div></td></tr><tr><td><div><table><tr><td><div>Change Password</div></td></tr><tr><td><div>False</div></td></tr><tr><td><div>/user/change_password</div></td></tr></table></div></td></tr><tr><td><div><table><tr><td><div>Contact</div></td></tr><tr><td><div>False</div></td></tr><tr><td><div>/plugin_wiki/contact</div></td></tr></table></div></td></tr></table></div></td></tr><tr><td style="font-weight:bold;vertical-align:top;">menu_edit</td><td style="vertical-align:top;">:</td><td><div><table><tr><td><div><table><tr><td><div>Edit</div></td></tr><tr><td><div>False</div></td></tr><tr><td><div>/admin/design/Bundjalung</div></td></tr><tr><td><div><table><tr><td><div><table><tr><td><div>Controller</div></td></tr><tr><td><div>False</div></td></tr><tr><td><div>/admin/edit/Bundjalung/controllers/default.py</div></td></tr></table></div></td></tr><tr><td><div><table><tr><td><div>View</div></td></tr><tr><td><div>False</div></td></tr><tr><td><div>/admin/edit/Bundjalung/views/language/edit_word.html</div></td></tr></table></div></td></tr><tr><td><div><table><tr><td><div>Layout</div></td></tr><tr><td><div>False</div></td></tr><tr><td><div>/admin/edit/Bundjalung/views/layout.html</div></td></tr></table></div></td></tr><tr><td><div><table><tr><td><div>Stylesheet</div></td></tr><tr><td><div>False</div></td></tr><tr><td><div>/admin/edit/Bundjalung/static/base.css</div></td></tr></table></div></td></tr><tr><td><div><table><tr><td><div>DB Model</div></td></tr><tr><td><div>False</div></td></tr><tr><td><div>/admin/edit/Bundjalung/models/db.py</div></td></tr></table></div></td></tr><tr><td><div><table><tr><td><div>Menu Model</div></td></tr><tr><td><div>False</div></td></tr><tr><td><div>/admin/edit/Bundjalung/models/menu.py</div></td></tr></table></div></td></tr><tr><td><div><table><tr><td><div>Database</div></td></tr><tr><td><div>False</div></td></tr><tr><td><div>/appadmin</div></td></tr></table></div></td></tr></table></div></td></tr></table></div></td></tr></table></div></td></tr><tr><td style="font-weight:bold;vertical-align:top;">menu_spread</td><td style="vertical-align:top;">:</td><td><div><table><tr><td><div><table><tr><td><div>Index</div></td></tr><tr><td><div>False</div></td></tr><tr><td><div>/plugin_spreadsheet</div></td></tr><tr><td><div><table></table></div></td></tr></table></div></td></tr></table></div></td></tr><tr><td style="font-weight:bold;vertical-align:top;">meta</td><td style="vertical-align:top;">:</td><td><div><table></table></div></td></tr><tr><td style="font-weight:bold;vertical-align:top;">models_to_run</td><td style="vertical-align:top;">:</td><td><div><table><tr><td><div>^\\w+\\.py$</div></td></tr><tr><td><div>^language/\\w+\\.py$</div></td></tr><tr><td><div>^language/edit_word/\\w+\\.py$</div></td></tr></table></div></td></tr><tr><td style="font-weight:bold;vertical-align:top;">postprocessing</td><td style="vertical-align:top;">:</td><td><div><table></table></div></td></tr><tr><td style="font-weight:bold;vertical-align:top;">session_client</td><td style="vertical-align:top;">:</td><td><div>113.197.9.114</div></td></tr><tr><td style="font-weight:bold;vertical-align:top;">session_cookie_compression_level</td><td style="vertical-align:top;">:</td><td><div>None</div></td></tr><tr><td style="font-weight:bold;vertical-align:top;">session_cookie_expires</td><td style="vertical-align:top;">:</td><td><div>None</div></td></tr><tr><td style="font-weight:bold;vertical-align:top;">session_cookie_key</td><td style="vertical-align:top;">:</td><td><div>None</div></td></tr><tr><td style="font-weight:bold;vertical-align:top;">session_data_name</td><td style="vertical-align:top;">:</td><td><div>session_data_bundjalung</div></td></tr><tr><td style="font-weight:bold;vertical-align:top;">session_db_record_id</td><td style="vertical-align:top;">:</td><td><div>50456L</div></td></tr><tr><td style="font-weight:bold;vertical-align:top;">session_db_table</td><td style="vertical-align:top;">:</td><td><div>&lt;Table web2py_session_Bundjalung (id,locked,client_ip,created_datetime,modified_datetime,unique_key,session_data)&gt;</div></td></tr><tr><td style="font-weight:bold;vertical-align:top;">session_db_unique_key</td><td style="vertical-align:top;">:</td><td><div>e07c11df-c786-422e-946f-1cbe799d9866</div></td></tr><tr><td style="font-weight:bold;vertical-align:top;">session_hash</td><td style="vertical-align:top;">:</td><td><div>3c3bb5a8adcc9447ea2cfb3c29026794</div></td></tr><tr><td style="font-weight:bold;vertical-align:top;">session_id</td><td style="vertical-align:top;">:</td><td><div>50456:e07c11df-c786-422e-946f-1cbe799d9866</div></td></tr><tr><td style="font-weight:bold;vertical-align:top;">session_id_name</td><td style="vertical-align:top;">:</td><td><div>session_id_bundjalung</div></td></tr><tr><td style="font-weight:bold;vertical-align:top;">session_masterapp</td><td style="vertical-align:top;">:</td><td><div>Bundjalung</div></td></tr><tr><td style="font-weight:bold;vertical-align:top;">session_new</td><td style="vertical-align:top;">:</td><td><div>False</div></td></tr><tr><td style="font-weight:bold;vertical-align:top;">session_storage_type</td><td style="vertical-align:top;">:</td><td><div>db</div></td></tr><tr><td style="font-weight:bold;vertical-align:top;">start</td><td style="vertical-align:top;">:</td><td><div>True</div></td></tr><tr><td style="font-weight:bold;vertical-align:top;">status</td><td style="vertical-align:top;">:</td><td><div>200</div></td></tr><tr><td style="font-weight:bold;vertical-align:top;">title</td><td style="vertical-align:top;">:</td><td><div>Bundjalung-Yugambeh Dictionary</div></td></tr><tr><td style="font-weight:bold;vertical-align:top;">view</td><td style="vertical-align:top;">:</td><td><div>language/edit_word.html</div></td></tr></table></div>'
tRp304
sS'locals'
p305
(dp306
S'query'
p307
S'"INSERT INTO Bundjalung_archive(Category,Comment,...l face;  \',\' \',\' Gd:Geyt face, person, know;  \');"'
p308
sS'self'
p309
S'<gluon.dal.adapters.mysql.MySQLAdapter object>'
p310
sS'e'
S'OperationalError(1054, "Unknown column \'Lesson\' in \'field list\'")'
p311
sS'fields'
p312
S'[(<gluon.dal.objects.Field object>, \'1 people 2 body pat\'), (<gluon.dal.objects.Field object>, "See also mibiny, primary meaning appears to be \'...y (mebbon) as \'drowned man\', probably \'Aboriginal"), (<gluon.dal.objects.Field object>, \' \'), (<gluon.dal.objects.Field object>, \'Aboriginal man ; person ; face ; know (Wi) ; Aboriginal(s) (M)\'), (<gluon.dal.objects.Field object>, \'  \'), (<gluon.dal.objects.Field object>, 3936L), (<gluon.dal.objects.Field object>, \'mibiny\'), (<gluon.dal.objects.Field object>, \'\'), (<gluon.dal.objects.Field object>, \'noun\'), (<gluon.dal.objects.Field object>, \'  \'), (<gluon.dal.objects.Field object>, \' Y:Sha:Culhm mibiny Aboriginal man; Y:Holm man (...oomera:Scebbon man; GC:Coomera:police mebbon drow\'), (<gluon.dal.objects.Field object>, " Bj:Holm:Fergn mibi????, poss. from *mi \'eye\' (c...hanggati mi:) and -bi????; Bj:Holm:Fergn mibin;  "), (<gluon.dal.objects.Field object>, \' \'), (<gluon.dal.objects.Field object>, \'Aboriginal man, person, face, know (Wi), Aboriginal(s) (M)\'), (<gluon.dal.objects.Field object>, \' Wa:Crowl face;  \'), (<gluon.dal.objects.Field object>, \' \'), (<gluon.dal.objects.Field object>, \' Gd:Geyt face, person, know;  \')]'
p313
sS'table'
p314
S'<Table Bundjalung_archive (id,current_record,Cat...,Copmanhurst,RelatedWord,Image,SoundFile,Lesson)>'
p315
sssS'traceback'
p316
S'Traceback (most recent call last):\n  File "/usr/local/web2py/gluon/restricted.py", line 224, in restricted\n    exec ccode in environment\n  File "/usr/local/web2py/applications/Bundjalung/controllers/language.py", line 320, in <module>\n  File "/usr/local/web2py/gluon/globals.py", line 393, in <lambda>\n    self._caller = lambda f: f()\n  File "/usr/local/web2py/gluon/tools.py", line 3444, in f\n    return action(*a, **b)\n  File "/usr/local/web2py/applications/Bundjalung/controllers/language.py", line 254, in edit_word\n    next=URL(r=request,c=\'language\', f=\'view_word\',args=word_id))\n  File "/usr/local/web2py/gluon/tools.py", line 4098, in update\n    callback(onaccept, form, table._tablename)\n  File "/usr/local/web2py/gluon/tools.py", line 86, in callback\n    [action(form) for action in actions]\n  File "/usr/local/web2py/gluon/tools.py", line 3997, in archive\n    current_record=current_record)\n  File "/usr/local/web2py/gluon/tools.py", line 3828, in archive\n    id = archive_table.insert(**new_record)\n  File "/usr/local/web2py/gluon/dal/objects.py", line 724, in insert\n    ret =  self._db._adapter.insert(self, self._listify(fields))\n  File "/usr/local/web2py/gluon/dal/adapters/base.py", line 715, in insert\n    raise e\nOperationalError: (1054, "Unknown column \'Lesson\' in \'field list\'")\n'
p317
s.