(dp1
S'output'
p2
S"<type 'exceptions.SyntaxError'> invalid syntax (plugin_wiki.py, line 455)"
p3
sS'layer'
p4
S'/usr/local/web2py/applications/Bundjalung/controllers/plugin_wiki.py'
p5
sS'code'
p6
S'# This file was developed by Massimo Di Pierro\n# It is released under BSD, MIT and GPL2 licenses\n\n##########################################################\n# code to handle wiki pages\n##########################################################\n\n###\n#@auth.requires_login()\n###\nimport os\n\ndef search():\n    words=None\n    pages=None\n    if request.vars.query:\n\tsearchterm=request.vars.query\n\ttypequery=request.vars.type\n        query = (db.plugin_wiki_page.body.like(\'%%%s%%\' % searchterm) |db.plugin_wiki_page.title.like(\'%%%s%%\' % searchterm) )\n        pages = db(query).select(db.plugin_wiki_page.title,db.plugin_wiki_page.summary, db.plugin_wiki_page.slug,db.plugin_wiki_page.tags,\n                                 orderby=db.plugin_wiki_page.title)\n\tif typequery=="English":\n\t\tquery= dblanguage.Bundjalung.English.like(\'%%%s%%\' % searchterm) \n\telse:\n\t\tquery= dblanguage.Bundjalung.Language_Word.like(\'%%%s%%\' % searchterm) \n\twords=dblanguage(query).select()\n    return dict(words=words, pages=pages, query=request.vars.query)\n\n\ndef pages():\n    w = db.plugin_wiki_page\n    t=db.plugin_wiki_tag\n    taglist=db(t.id>0).select(orderby=t.id)\n    words=None\n    if plugin_wiki_editor:\n    \t    pages = db(w.id>0)(w.is_active==True).select(orderby=w.title)\n    else:\n        \tpages = db(w.is_active==True)(w.is_public==True).select(orderby=w.title)\n     \n    if plugin_wiki_editor:\n        \tform=SQLFORM.factory(Field(\'title\',requires=db.plugin_wiki_page.title.requires),\n                             Field(\'from_template\',requires=IS_EMPTY_OR(IS_IN_DB(db,db.plugin_wiki_page.title))))\n\t\tif form.accepts(request.vars):\n\t\t\ttitle=request.vars.title\n\t        \tpage =db(w.title==title).select().first()\n\t\t\tif not page:\n        \t\t\tpage = w.insert(slug=title.replace(\' \',\'_\'),\n                \t        title=title,\n                        \tbody=request.vars.template and w(slug=request.vars.template).body or \'\')\n            \t\tredirect(URL(r=request,f=\'edit_page\',args=form.vars.title,vars=dict(template=request.vars.from_template or \'\')))\n    else:\n\t\tform=\'\'\n    return dict(taglist=taglist, pages=pages, form=form,query=request.vars.query)\n\ndef index():\n    page= db.plugin_wiki_page(slug="Introduction")\n    if page: pageteaser=page.summary\n    else: pageteaser=""\n    return dict(page=pageteaser,title=page.title,images=images)\n\ndef about():\n    images=db(db.image.show==0).select()\n    w = db.plugin_wiki_page\n    page = w(slug="about_us")\n    if page: pageteaser=page.summary\n    else: pageteaser=""\n    return dict(page=pageteaser,title=\'Language Locations\',images=images)\n\ndef teaching():\n        #redirect(URL(\'index\'))\n    images=db(db.image.show==1).select()\n    return dict(title=\'Language Teaching\',images=images)\n\ndef map():\n    w = db.plugin_wiki_page\n    page = w(title="Index")\n    if plugin_wiki_editor:\n        form=SQLFORM.factory(Field(\'title\',requires=db.plugin_wiki_page.title.requires),  Field(\'from_template\',requires=IS_EMPTY_OR(IS_IN_DB(db,db.plugin_wiki_page.title))))\n        if form.accepts(request.vars):\n            redirect(URL(r=request,f=\'page\',args=form.vars.title.replace(\' \',\'_\'),vars=dict(template=request.vars.from_template or \'\')))\n    else:\n        form=\'\'\n    width = request.vars.width or 600\n    height = request.vars.height or 600\n\n\n    rows = plugin_gmap.set.select()\n    alcs= plugin_gmaps.set.select()\n    for row in rows:\n        row.plugin_gmap_clw= plugin_gmap.clw(row)\n        try:\n                if not row.Web_URL:\n                        row.Web_URL=dblanguage.ALC(id=plugin_gmap.id(row)).Web_URL\n                row.plugin_gmap_color = dblanguage.ALC(id=plugin_gmap.id(row)).Colour.lower()\n                row.plugin_gmap_address= plugin_gmap.address(row)\n                row.plugin_gmap_image= plugin_gmap.image(row)\n                row.plugin_gmap_ALC=plugin_gmap.ALC(row)\n                row.plugin_gmap_alt=plugin_gmap.alt(row)\n                row.plugin_gmap_popup=plugin_gmap.represent(row)\n\t\trow.login=auth.is_logged_in()\n        except:\n                pass\n    for alc in alcs:\n        alc.plugin_gmaps_alc=plugin_gmaps.alcs(alc)\n        alc.plugin_gmaps_color = plugin_gmaps.color(alc)\n        alc.plugin_gmaps_image= plugin_gmaps.image(alc)\n        alc.plugin_gmaps_address=plugin_gmaps.address(alc)\n\talc.login=auth.is_logged_in()\n    #return LOAD(\'plugin_gmap\',\'map\', ajax=True)\n\n    return dict(width=width,height=height, alcs=alcs,  rows=rows,page=page, form=form)\n\ndef contact():\n\n    form=SQLFORM.factory(\n        Field(\'your_email\',requires=IS_EMAIL()),\n        Field(\'question\',\'text\', requires=IS_NOT_EMPTY()))\n    if form.process().accepted:\n        if mail.send(to ="ckutay@cities.org.au",\n        subject="From %s website" % language,\n\treply_to="%s" % form.vars.your_email,\n\tmessage=form.vars.question):\n          pass#   redirect(URL(\'contact\'))\n    elif form.errors:\n        form.errors.your_email=\'Unable to send email\'\n    top_message = "This form will send an email to Muurrbay. We will try to answer your request quickly"   \n    return dict(form=form, top_message=top_message)\n\n\n@auth.requires_login()\ndef edit_resource():\n\tform=None\n        resource_title=request.args(0)\n        if(resource_title==None):redirect(URL(r=request, c=\'plugin_wiki\', f=\'resources\'))\n        transcript=db(db.plugin_wiki_transcript.title==resource_title).select().first()\n        w = db.Resources\n        resource = w(title=resource_title)\n        if not  resource:\n           \tredirect(URL(r=request, c=\'plugin_wiki\', f=\'resources\'))\n\telse:\n                #tags = page.tags #in practice \'xyz\' would be a variable\n                form = crud.update(w, resource, deletable=True, onaccept=crud.archive,\n                next=URL(r=request,c=\'plugin_wiki\', f=\'resource\',args=resource_title))\n\n\tresource_name=os.path.join(\'file\',resource.name)\n\treturn dict(resources=None,resource=resource,resource_name=resource_name, transcript=transcript,form=form)\n\n\n@auth.requires_login()\ndef edit_resource_transcript():\n        resource_title=request.args(0)\n\tform=None\n        if(resource_title==None):redirect(URL(r=request, c=\'plugin_wiki\', f=\'resources\'))\n        resource=db(db.Resources.title==resource_title).select().first()\n        if(resource==None):redirect(URL(r=request, c=\'plugin_wiki\', f=\'resources\'))\n        transcript=db(db.plugin_wiki_transcript.title==resource_title).select().first()\n\tif plugin_wiki_editor:\n           slug=resource_title.replace(\' \',\'_\').lower() \n    \t   w = db.plugin_wiki_transcript\n    \t   transcript= w(title=resource_title)\n    \t   if not transcript:\n        \ttranscript= w.insert(slug=slug,\n                        title=resource_title,\n                        body=request.vars.template and w(slug=request.vars.template).body or \'\')\n           form = crud.update(w, transcript, deletable=True, onaccept=crud.archive,\n                next=URL(r=request,c=\'plugin_wiki\', f=\'resource\',args=resource_title))\n\n\n\treturn dict(form=form, resources=None,resource=resource,transcript=transcript)\n\ndef resources():\n\tResources=db.Resources\n\tresources = db(Resources.id>0).select(orderby=Resources.title)            \n        if(resources==None):redirect(URL(r=request, c=\'plugin_wiki\', f=\'pages\'))\n        return dict(resource=None,resources=resources)\n\ndef resource():\n\tresource_title=request.args(0)\n\tif(resource_title==None):redirect(URL(r=request, c=\'plugin_wiki\', f=\'resources\'))\n\tresource=db(db.Resources.title==resource_title).select().first()\n\tif(resource==None):redirect(URL(r=request, c=\'plugin_wiki\', f=\'resources\'))   \n\tpage=db(db.plugin_wiki_transcript.title==resource_title)\n\tif (page): page=page.select().first()     \n\tresource_name=os.path.join("file",resource.name)\n\treturn dict(resources=None,resource=resource, resource_name=resource_name, page=page)\n\n\n\ndef tags_by_tag():\n\timport re\n\tif not(request.args):\n    \t     redirect(URL(r=request, c=\'plugin_wiki\', f=\'pages\'))\n\tpages=None\n\tpage=None\n\tpage_body=None\n\ttitle="No results"\n\ttry:\n\t\t\ttag_id= str(request.args[0])\n\texcept (KeyError, ValueError, TypeError):\n        \t\tredirect(URL(r=request, c=\'plugin_wiki\', f=\'pages\'))\n      \t\n\ttag=db.plugin_wiki_tag(id=tag_id)\n\tif (tag!=None):\n\t\t\ttag.is_active=True;\n\t\t \ttags=db(db.plugin_wiki_tag.parent==tag.name).select()\n\ttry:\n\t\tpage_id= str(request.args[1])\n\texcept(KeyError, IndexError,ValueError, TypeError):\n\t\tpage_id=str(request.args[0])\n\tif (page_id.isdigit()):\n\t\ttag_name=db.plugin_wiki_tag(id=tag_id).name\n\n        try:\n                tag=db.plugin_wiki_tag(id=tag_id)\n        except (KeyError, ValueError, TypeError):\n                tag=db.plugin_wiki_tag(name=tag_id)\n                tag_id=tag.id\n        if (tag!=None):\n                tag.is_active=True;\n                tags=db(db.plugin_wiki_tag.parent==tag.name).select()\n        tag_name=tag.name\n        try:\n                page_id= str(request.args[1])\n        except(KeyError, IndexError,ValueError, TypeError):\n                page_id=str(request.args[0])\n        #if(page_id.isdigit()):\n        tag_obj=db.plugin_wiki_tag(id=tag_id)\n\tif tag_obj: tag_name=tag_obj.name\n\telse: tag_name=None\n        tag_parent=tag_obj.parent\n        tag=db.plugin_wiki_tag(name=tag_parent)\n        if (tag): tag.is_active=True\n        \n\n\tquery = ((db.plugin_wiki_page.tags.like(\'%%|%s|%%\' % tag_id)))\n#        pages = db(query).select(orderby=~db.plugin_wiki_page.created_on)\n        if (tags):\n                        page = db(query).select(orderby=~db.plugin_wiki_page.created_on).first()\n                        if (page and page.worksheet):\n                                page.body=wsread_page(page)\n                                title="Latest article:"\n        else:\n                        pages = db(query).select(orderby=~db.plugin_wiki_page.created_on)\n                        if(len(pages)>0):\n                                title="Pages available are:"\n                                page=pages[0]\n                                try:\n                                        page=pages[1]\n                                except:\n                                        title="Page:"\n                                        page=pages[0]\n                                        page.body=wsread_page(pages[0])\n                                        pages=None\n\n        #else:\n    #           w = db.plugin_wiki_page\n   #            page = w(slug=page_id)\n#               if page:\n#                       page=page.select()\n#                       if (page.worksheet):page.body=wsread_page(page)\n        if(page!=None):\n                page_body=page.body\n                #if tag_name!=None:\n                #       page_body=\'\'\n        form=""\n        #read wordlist\n        query = (dblanguage.Bundjalung.Category==tag_name)\n\n        words=  dblanguage(query).select(orderby=dblanguage.Bundjalung.English)\n        for word in words:\n                word=read_word(word)\n        if (words and page==None):\n                title="Words in Category"\n        return dict(tag=tag, words=words,form=form,pages=pages,title=title,page=page,page_body=page_body)\n\n\n\ndef pages_by_tag():\n      if not(request.args):\n         redirect(URL(r=request, c=\'plugin_wiki\', f=\'pages\'))\n\n      try:\n        tag_name= str(request.args[0])\n\n      except (KeyError, ValueError, TypeError):\n        redirect(URL(r=request, c=\'plugin_wiki\', f=\'pages\'))\n      else:\n        if (tag_name==None):\n            redirect(URL(r=request, c=\'plugin_wiki\', f=\'pages\'))\n        if(tag_name=="Contact"):\n\t#contact form\n\t\tredirect(URL(r=request, c=\'plugin_wiki\', f=\'contact\'))\n        if (tag_name=="WordList"):\n\t#word list\n\t\tredirect(URL(r=request, c=\'plugin_wiki\', f=\'dictionary\'))\t\n\ttag_obj=db.plugin_wiki_tag(name=tag_name)\n\n\tif tag_obj: \n\t\ttag_id = tag_obj.id\n\t\t\n\telse: \n\t\ttry:\n\t\t\ttag_obj=db.plugin_wiki_tag(id=tag_name)\n        \t\tif tag_obj: \n\t\t\t\ttag_id = tag_obj.id\n\t\t\t\ttag_name=tag_obj.name\n        \t\telse: tag_id=None\n\t\texcept: tag_id=None \n\t#find parent tag to keep menu open\n\ttag_parent=tag_obj.parent\n\ttag=db.plugin_wiki_tag(name=tag_parent)\n\tif (tag): tag.is_active=True\n        query = ((db.plugin_wiki_page.tags.like(\'%%|%s|%%\' % tag_id))) \n#        pages = db(query).select(orderby=~db.plugin_wiki_page.created_on)\n\tpages = db(query).select()\n\tif pages:\n    \t\tsorted_pages = []\n\n\n\n    \t\tfor row in pages.sort(lambda row: row.created_on,reverse=True):\n        \t\tsorted_pages.append(row)\n\t\tpages=sorted_pages\n\t\tif (pages[0].worksheet):\n\t\t\tpages[0].body=wsread_page(pages[0])\n        else:\n                redirect(URL(r=request, c=\'plugin_wiki\', f=\'pages\'))\n\n        return dict(tag=tag, pages=pages, selected_tag=tag_name)\n\ndef user():\n\tredirect(URL(r=request, c=\'default\', f=\'user\'))\n\ndef cache_in_ram():\n    import time\n    t=cache.ram(\'time\',lambda:time.ctime(),time_expire=5)\n    return dict(time=t,link=A(\'click to reload\',_href=URL(r=request)))\n\n#@cache(request.env.path_info,time_expire=5,cache_model=cache.disk)\n\n\ndef page():\n    """\n    shows a page\n    """\n    slug= request.args(0) \n    import re\n    if slug=="Index" or slug==None:\n\tredirect(URL(r=request, c=\'plugin_wiki\', f=\'index.html\'))\n    if slug=="Admin_Help" and not auth.user:\n        redirect(URL(r=request, c=\'plugin_wiki\', f=\'pages\'))\n\n\n    w = db.plugin_wiki_page\n    page = w(slug=slug)\n    #for template\n    if (not page or not page.is_public or not page.is_active):\n    \t if plugin_wiki_editor:\n\t\tredirect(URL(r=request, c=\'plugin_wiki\', f=\'edit_page\', args=request.args))\n\t if (session):session.flash=T("Page not available")\n\n\t redirect(URL(r=request, c=\'plugin_wiki\', f=\'pages\'))\n    elif page and page.role and not auth.has_membership(page.role):    \n        raise HTTP(404)\n\t# parse pages. First History\n    if page.worksheet:\n\tredirect (URL(r=request,c=\'learning\',f=\'page\'))\n\tpage.questions=[]\n    page.attachments=[]\n    a=db.plugin_wiki_attachment\n    query = (a.tablename=="page")&(a.record_id==page.id)\n    page.attachments=db(query).select()\n    tag=page.tags\n    tags=tag.split(\'|\')\n    page_body=page.body\n    if (page.worksheet):page_body = wsread_page(page)\n    worksheet= db(db.plugin_wiki_tag.name=="WorkSheet").select().first()\n    if(worksheet!=None):\n\tif (str(worksheet.id) in tags):\n\t\tpage=read_question(page_body, page)\n\t\ttitle=page.title\n\t\tpage_body=page.body\n    #if not returned\n    book= db(db.plugin_wiki_tag.name=="Book").select().first()\n    if(book!=None):\n    \tif (str(book.id) in tags):\n\t\ttitle=page.title\n\t\tform=""\n\t\tpage_body=\'<div style="background-image:url(/Bundjalung/image/bush_scene.jpg);height:400px;">\'+page.body+"</div>"\n\t\treturn dict(title=title, form=form, page=page, page_body=page_body)\n    if request.extension==\'load\':\n        return plugin_wiki.render(page_body)\n    if request.extension==\'html\':         \n        return dict(form="", title=page.title, page=page, page_body=page_body, slug=slug)\n    return MAKRMIN(page_body,extra={\'widget\':(lambda code:\'\'),\n                                    \'template\':(lambda template:\'\')})\n\ndef page_archive():\n    """\n    shows and old version of a page\n    """\n    id = request.args(0)\n    h = db.plugin_wiki_page_archive\n    page = h(id)\n    if not page or (not plugin_wiki_editor and (not page.is_public or not page.is_active)):\n        raise HTTP(404)\n    elif page and page.role and not auth.has_membership(page.role):\n        raise HTTP(404)\n    if request.extension!=\'html\': return page.body\n    return dict(page=page)\n\ndef create_page():\n    if plugin_wiki_editor:\n                form=SQLFORM.factory(Field(\'title\',requires=db.plugin_wiki_page.title.requires),\n                             Field(\'from_template\',requires=IS_EMPTY_OR(IS_IN_DB(db,db.plugin_wiki_page.modified_on))))\n                if form.accepts(request.vars):\n                        redirect(URL(r=request,c=\'plugin_wiki\',f=\'page_edit\',args=form.vars.title.replace(\' \',\'_\'),vars=dict(template=request.vars.from_template or \'\')))\n    else:\n                form=\'\'\n\n    return dict(form=form, pages=pages)\n\n@auth.requires_login()\ndef edit_page():\n    """\n    edit a page\n    """\n    slug = request.args(0) or \'Index\'\n    tags=""\n    if request.args(1): tags=\'|\'+request.args(1)+\'|\'\n    slug=slug.replace(\' \',\'_\')\n    w = db.plugin_wiki_page\n    w.role.writable = w.role.readable = plugin_wiki_level>1\n    page = w(slug=slug)\n    """\n    db.plugin_wiki_page.tag.default=""\n    db.plugin_wiki_page.update.tags=db.plugin_wiki_page.tags\n    """\n    if not page:\n        db.plugin_wiki_page.tags.default=tags\n\n        page = w.insert(slug=slug,\n                        title=slug.replace(\'_\',\' \'),\n                        tags=tags,\n                        body=request.vars.template and w(slug=request.vars.template).body or \'\')\n    else:\n\ttags = page.tags #in practice \'xyz\' would be a variable\n    if page.title=="Index":\n\tform = crud.update(w, page, deletable=True, onaccept=crud.archive,\n                       next=URL(r=request, c=\'plugin_wiki\', f=\'index\'))\n    else:\n\tif page.worksheet:\n\t\tform = crud.update(w, page, deletable=True, onaccept=crud.archive,\n\t\tnext=URL(r=request,c=\'learning\', f=\'page\',args=slug))\n\telse;\n\t\tform = crud.update(w, page, deletable=True, onaccept=crud.archive,\n                next=URL(r=request,c=\'plugin_wiki\', f=\'page\',args=slug))\n\n    return dict(form=form,page=page,tags=tags)\n\n\ndef page_history():\n    """\n    show page changelog\n    """\n    slug = request.args(0) or \'index\'\n    w = db.plugin_wiki_page\n    h = db.plugin_wiki_page_archive\n    page = w(slug=slug)\n    history = db(h.current_record==page.id).select(orderby=~h.modified_on)\n    return dict(page=page, history=history)\n\n\ndef tags():\n    form = crud.create(db.plugin_wiki_tag)\n    tags = db(db.plugin_wiki_tag.id > 0).select(orderby=db.plugin_wiki_tag.id)\n    return dict(form=form, tags=tags)\n\n\ndef edit_tag():\n    if not request.args:\n        session.flash = T(\'Invalid tag\')\n        redirect(URL(r=request, f=\'_tags\'))\n    form = crud.update(db.plugin_wiki_tag, request.args[0], deletable=True)\n    return dict(form=form)\n\n##########################################################\n# ajax callbacks\n##########################################################\ndef attachments():\n    """\n    allows to edit page attachments\n    """\n    a=db.plugin_wiki_attachment\n    a.tablename.default=tablename=request.args(0)\n    a.record_id.default=record_id=request.args(1)\n    #if request.args(2): a.filename.writable=False\n    form=crud.update(a,request.args(2),deletable=True,\n                     next=URL(r=request,args=request.args[:2]))\n    if request.vars.list_all:\n        query = a.id>0\n    else:\n        query = (a.tablename==tablename)&(a.record_id==record_id)\n    rows=db(query).select(orderby=a.name)\n    return dict(form=form,rows=rows)\n\ndef attachment():\n    """\n    displays an attachments\n    """\n    short=request.args(0)\n    if plugin_wiki_authorize_attachments and \\\n            not short in session.plugin_wiki_attachments:\n        raise HTTP(400)\n    a=db.plugin_wiki_attachment\n    record=a(short.split(\'.\')[0])\n    if not record: raise HTTP(400)\n    request.args[0]=record.filename\n    return response.download(request,db)\n\n\ndef images_by_name():\n    short=request.args(0)\n    a=db.plugin_wiki_images\n    record=a(short[0])\n    if not record:return  record\n    request.args[0]=record.filename\n    return response.download(request,db)\n\ndef images():\n    title="Images"\n    images = dblanguage().select(dblanguage.images.ALL, orderby=dblanguage.images.title)\n\n    return dict(images=images)\n\ndef show_image():\n    image = dblanguage.images(request.args(0,cast=int)) or redirect(URL(\'index\'))\n    dblanguage.post.image_id.default = image.id\n    form = SQLFORM(dblanguage.post)\n    if form.process().accepted:\n        response.flash = \'your comment is posted\'\n    comments = dblanguage(dblanguage.post.image_id==image.id).select()\n    return dict(image=image, comments=comments, form=form)\n\n@auth.requires_login()\ndef manage_images():\n    grid = SQLFORM.smartgrid(dblanguage.images,linked_tables=[\'post\'])\n    return dict(grid=grid)\n\ndef download():\n    return response.download(request, db)\n\ndef comment():\n    """\n    post a comment\n    """\n    tablename, record_id = request.args(0), request.args(1)\n    table=db.plugin_wiki_comment\n    if record_id==\'None\': record_id=0\n    table.tablename.default=tablename\n    table.record_id.default=record_id\n    if auth.user:\n        form = crud.create(table)\n    else:\n        form = A(T(\'login to comment\'),_href=auth.settings.login_url)\n    comments=db(table.tablename==tablename)\\\n        (table.record_id==record_id).select()\n    return dict(form = form,comments=comments)\n###\n##@auth.requires_login()\n##\ndef jqgrid():\n    """\n    jqgrid callback retrieves records\n    http://trirand.com/blog/jqgrid/server.php?q=1&_search=false&nd=1267835445772&rows=10&page=1&sidx=amount&sord=asc&searchField=&searchString=&searchOper=\n    """\n    from gluon.serializers import json\n    import cgi\n    hash_vars = \'dbname|tablename|columns|fieldname|fieldvalue|user\'.split(\'|\')\n    if not URL.verify(request,hmac_key=auth.settings.hmac_key,\n                      hash_vars=hash_vars,salt=auth.user_id):\n        raise HTTP(404)    \n    tablename = request.vars.tablename or error()\n    columns = (request.vars.columns or error()).split(\',\')\n    rows=int(request.vars.rows or 25)\n    page=int(request.vars.page or 0)\n    sidx=request.vars.sidx or \'id\'\n    sord=request.vars.sord or \'asc\'\n    searchField=request.vars.searchField\n    searchString=request.vars.searchString\n    searchOper={\'eq\':lambda a,b: a==b,\n                \'nq\':lambda a,b: a!=b,\n                \'gt\':lambda a,b: a>b,\n                \'ge\':lambda a,b: a>=b,\n                \'lt\':lambda a,b: a<b,\n                \'le\':lambda a,b: a<=b,\n                \'bw\':lambda a,b: a.like(b+\'%\'),\n                \'bn\':lambda a,b: ~a.like(b+\'%\'),\n                \'ew\':lambda a,b: a.like(\'%\'+b),\n                \'en\':lambda a,b: ~a.like(\'%\'+b),\n                \'cn\':lambda a,b: a.like(\'%\'+b+\'%\'),\n                \'nc\':lambda a,b: ~a.like(\'%\'+b+\'%\'),\n                \'in\':lambda a,b: a.belongs(b.split()),\n                \'ni\':lambda a,b: ~a.belongs(b.split())}\\\n                [request.vars.searchOper or \'eq\']\n    table=globals()[dbname][tablename]\n    if request.vars.fieldname:\n        names = request.vars.fieldname.split(\'|\')\n        values = request.vars.fieldvalue.split(\'|\')\n        query = reduce(lambda a,b:a&b,\n                       [table[names[i]]==values[i] for i in range(len(names))])\n    else:\n        query = table.id>0\n    dbset = table._db(query)\n    if searchField: dbset=dbset(searchOper(table[searchField],searchString))\n    orderby = table[sidx]\n    if sord==\'desc\': orderby=~orderby\n    limitby=(rows*(page-1),rows*page)\n    fields = [table[f] for f in columns]\n    records = dbset.select(orderby=orderby,limitby=limitby,*fields)\n    nrecords = dbset.count()\n    items = {}\n    items[\'page\']=page\n    items[\'total\']=int((nrecords+(rows-1))/rows)\n    items[\'records\']=nrecords\n    readable_fields=[f.name for f in fields if f.readable]\n    def f(value,fieldname):\n        r = table[fieldname].represent\n        if r: value=r(value)\n        try: return value.xml()\n        except: return cgi.escape(str(value))\n    items[\'rows\']=[{\'id\':r.id,\'cell\':[f(r[x],x) for x in readable_fields]} \\\n                       for r in records]\n    return json(items)\n\n\ndef _tags():\n    import re\n    db_tag = db.plugin_wiki_tag\n    db_link = db.plugin_wiki_link\n    table_name=request.args(0)\n    record_id=request.args(1)\n    if not auth.user_id:\n        return \'\'\n    form = SQLFORM.factory(Field(\'tag_name\',requires=IS_SLUG()))\n    if request.vars.tag_name:\n        for item in request.vars.tag_name.split(\',\'):\n            tag_name = re.compile(\'\\s+\').sub(\' \',item).strip()\n            tag_exists = tag = db(db_tag.name==tag_name).select().first()\n            if not tag_exists:\n                tag = db_tag.insert(name=tag_name, links=1)\n            link = db(db_link.tag==tag.id)\\\n                (db_link.table_name==table_name)\\\n                (db_link.record_id==record_id).select().first()\n            if not link:\n                db_link.insert(tag=tag.id,\n                               table_name=table_name,record_id=record_id)\n                if tag_exists:\n                    tag.update_record(links=tag.links+1)\n    for key in request.vars:\n        if key[:6]==\'delete\':\n            link_id=key[6:]\n            link=db_link[link_id]\n            del db_link[link_id]\n            db_tag[link.tag] = dict(links=db_tag[link.tag].links-1)\n    links = db(db_link.table_name==table_name)\\\n              (db_link.record_id==record_id).select()\\\n              .sort(lambda row: row.tag.name.upper())\n    return dict(links=links, form=form)\n\ndef cloud():\n    tags = db(db.plugin_wiki_tag.links>0).select(limitby=(0,20))\n    if tags:\n        mc = max([tag.links for tag in tags])\n    return DIV(_class=\'plugin_wiki_tag_cloud\',*[SPAN(A(tag.name,_href=URL(r=request,c=\'plugin_wiki\',f=\'page\',args=(\'tag\',tag.id))),_style=\'font-size:%sem\' % (0.8+1.0*tag.links/mc)) for tag in tags])\n\n@auth.requires(plugin_wiki_editor)\ndef widget_builder():\n    """\n    >> inspect.getargspec(PluginWikiWidgets.tags)\n    ([\'table\', \'record_id\'], None, None, (\'None\', None))\n    >>> dir(PluginWikiWidgets)\n    """\n    import inspect\n    name=request.vars.name\n    if plugin_wiki_widgets==\'all\':\n        widgets = [\'\']+[item for item in dir(PluginWikiWidgets) if item[0]!=\'_\']\n    else:\n        widgets = plugin_wiki_widgets\n    form=FORM(LABEL(\'Widget Name: \'), SELECT(_name=\'name\',value=name,\n                     _onchange="jQuery(this).parent().submit()",*widgets))\n    widget_code=\'\'\n    if name in widgets: \n        a,b,c,d=inspect.getargspec(getattr(PluginWikiWidgets,name))\n        a,d=a or [],d or []\n        null = lambda:None\n        d=[null]*(len(a)-len(d))+[x for x in d]\n        ESC=\'x\'\n        fields = [Field(ESC+a[i],label=a[i],default=d[i]!=null and d[i] or \'\',\n                        requires=(d[i]==null) and IS_NOT_EMPTY() or None,\n                        comment=(d[i]==null) and \'required\' or \'\') \\\n                      for i in range(len(a))]\n        form_widget=SQLFORM.factory(hidden=dict(name=name),*fields)\n        doc = getattr(PluginWikiWidgets,name).func_doc or \'\'\n        if form_widget.accepts(request.vars):\n            keys=[\'name: %s\' % request.vars.name]\n            for name in a:\n                if request.vars[ESC+name]:\n                    keys.append(name+\': %s\' % request.vars[ESC+name])\n            widget_code=CODE(\'``\\n%s\\n``:widget\' % \'\\n\'.join(keys))\n    else:\n        doc=\'\'\n        form_widget=\'\'\n    return dict(form=form,form_widget=form_widget,doc=doc,\n                widget_code=widget_code)\n\n\ndef star_rate():\n    N=5 #max no of stars (if you use split stars you\'ll get a rating out of 10)\n    pm = db.plugin_wiki_rating\n    pa = db.plugin_wiki_rating_aux\n    tablename = request.args(0)\n    record_id = request.args(1)\n    rating = abs(float(request.vars.rating or 0)) \n    \n    try:\n        db[tablename] #if there\'s no such table. Salute.\n        if rating>N or rating<0: raise Exception #similar if rating is simulated.\n        if not db[tablename][record_id]: raise Exception #also if there\'s no specified record in table\n        if not auth.user_id: raise Exception #user has to login to rate\n    except:\n        return \'\'\n        \n    master = db(pm.tablename==tablename)(pm.record_id==record_id).select().first()    \n    \n    if master:\n        master_rating, master_counter = master.rating, master.counter\n    else:\n        master_rating, master_counter = 0, 0\n        master=pm.insert(tablename=tablename,record_id=record_id,rating=master_rating,counter=master_counter)        \n        \n    record = db(pa.master==master)(pa.created_by==auth.user_id).select().first()\n        \n    if rating:\n        if not record:\n           record = pa.insert(master=master,rating=rating,created_by=auth.user_id)\n           master_rating = (master_rating*master_counter + rating)/(master_counter+1)\n           master_counter = master_counter + 1\n        else:\n           master_counter = master_counter\n           master_rating = (master_rating*master_counter - record.rating + rating)/master_counter\n           record.update_record(rating=rating)\n        master.update_record(rating=master_rating, counter=master_counter)        \n    try:  \n        db[tablename][record_id][\'rating\']\n    except:\n        return \'\'\n    else:\n        db[tablename][record_id].update_record(rating=master_rating)\n        \n    return \'\'\n   \n\nresponse._vars=response._caller(edit_page)\n'
p7
sS'snapshot'
p8
(dp9
S'exception'
p10
(dp11
S'__getslice__'
p12
S"<method-wrapper '__getslice__' of exceptions.SyntaxError object>"
p13
sS'text'
p14
S"'\\telse;\\n'"
p15
sS'__str__'
p16
S"<method-wrapper '__str__' of exceptions.SyntaxError object>"
p17
sS'__reduce__'
p18
S'<built-in method __reduce__ of exceptions.SyntaxError object>'
p19
sS'__dict__'
p20
S'{}'
p21
sS'__sizeof__'
p22
S'<built-in method __sizeof__ of exceptions.SyntaxError object>'
p23
sS'__init__'
p24
S"<method-wrapper '__init__' of exceptions.SyntaxError object>"
p25
sS'__setattr__'
p26
S"<method-wrapper '__setattr__' of exceptions.SyntaxError object>"
p27
sS'__reduce_ex__'
p28
S'<built-in method __reduce_ex__ of exceptions.SyntaxError object>'
p29
sS'__new__'
p30
S'<built-in method __new__ of type object>'
p31
sS'__format__'
p32
S'<built-in method __format__ of exceptions.SyntaxError object>'
p33
sS'__class__'
p34
S"<type 'exceptions.SyntaxError'>"
p35
sS'filename'
p36
S"'/usr/local/web2py/applications/Bundjalung/controllers/plugin_wiki.py'"
p37
sS'lineno'
p38
S'455'
p39
sS'msg'
p40
S"'invalid syntax'"
p41
sS'__doc__'
p42
S"'Invalid syntax.'"
p43
sS'__getitem__'
p44
S"<method-wrapper '__getitem__' of exceptions.SyntaxError object>"
p45
sS'__setstate__'
p46
S'<built-in method __setstate__ of exceptions.SyntaxError object>'
p47
sS'__getattribute__'
p48
S"<method-wrapper '__getattribute__' of exceptions.SyntaxError object>"
p49
sS'print_file_and_line'
p50
S'None'
p51
sS'args'
p52
S"('invalid syntax', ('/usr/local/web2py/applications/Bundjalung/controllers/plugin_wiki.py', 455, 6, '\\telse;\\n'))"
p53
sS'__subclasshook__'
p54
S'<built-in method __subclasshook__ of type object>'
p55
sS'offset'
p56
S'6'
sS'__unicode__'
p57
S'<built-in method __unicode__ of exceptions.SyntaxError object>'
p58
sS'__delattr__'
p59
S"<method-wrapper '__delattr__' of exceptions.SyntaxError object>"
p60
sS'__repr__'
p61
S"<method-wrapper '__repr__' of exceptions.SyntaxError object>"
p62
sS'__hash__'
p63
S"<method-wrapper '__hash__' of exceptions.SyntaxError object>"
p64
ssS'evalue'
p65
S'invalid syntax (plugin_wiki.py, line 455)'
p66
sS'request'
p67
cgluon.html
XML_unpickle
p68
(S's\x8dR\x00\x00<div><table><tr><td style="font-weight:bold;vertical-align:top;">ajax</td><td style="vertical-align:top;">:</td><td><div>False</div></td></tr><tr><td style="font-weight:bold;vertical-align:top;">application</td><td style="vertical-align:top;">:</td><td><div>Bundjalung</div></td></tr><tr><td style="font-weight:bold;vertical-align:top;">args</td><td style="vertical-align:top;">:</td><td><div><table><tr><td><div>crow_in_tree.png</div></td></tr></table></div></td></tr><tr><td style="font-weight:bold;vertical-align:top;">cid</td><td style="vertical-align:top;">:</td><td><div>None</div></td></tr><tr><td style="font-weight:bold;vertical-align:top;">client</td><td style="vertical-align:top;">:</td><td><div>127.0.0.1</div></td></tr><tr><td style="font-weight:bold;vertical-align:top;">controller</td><td style="vertical-align:top;">:</td><td><div>plugin_wiki</div></td></tr><tr><td style="font-weight:bold;vertical-align:top;">cookies</td><td style="vertical-align:top;">:</td><td><div><table><tr><td style="font-weight:bold;vertical-align:top;">session_id_bundjalung</td><td style="vertical-align:top;">:</td><td><div>5136:96586c82-5548-4c38-bfa3-241b9d2f2f9a<table><tr><td style="font-weight:bold;vertical-align:top;">comment</td><td style="vertical-align:top;">:</td><td><div></div></td></tr><tr><td style="font-weight:bold;vertical-align:top;">domain</td><td style="vertical-align:top;">:</td><td><div></div></td></tr><tr><td style="font-weight:bold;vertical-align:top;">expires</td><td style="vertical-align:top;">:</td><td><div></div></td></tr><tr><td style="font-weight:bold;vertical-align:top;">httponly</td><td style="vertical-align:top;">:</td><td><div></div></td></tr><tr><td style="font-weight:bold;vertical-align:top;">max-age</td><td style="vertical-align:top;">:</td><td><div></div></td></tr><tr><td style="font-weight:bold;vertical-align:top;">path</td><td style="vertical-align:top;">:</td><td><div></div></td></tr><tr><td style="font-weight:bold;vertical-align:top;">secure</td><td style="vertical-align:top;">:</td><td><div></div></td></tr><tr><td style="font-weight:bold;vertical-align:top;">version</td><td style="vertical-align:top;">:</td><td><div></div></td></tr></table></div></td></tr></table></div></td></tr><tr><td style="font-weight:bold;vertical-align:top;">env</td><td style="vertical-align:top;">:</td><td><div><table><tr><td style="font-weight:bold;vertical-align:top;">HTTP_ACCEPT</td><td style="vertical-align:top;">:</td><td><div>image/webp,*/*;q=0.8</div></td></tr><tr><td style="font-weight:bold;vertical-align:top;">HTTP_ACCEPT_ENCODING</td><td style="vertical-align:top;">:</td><td><div>gzip, deflate, sdch</div></td></tr><tr><td style="font-weight:bold;vertical-align:top;">HTTP_ACCEPT_LANGUAGE</td><td style="vertical-align:top;">:</td><td><div>en-US,en;q=0.8</div></td></tr><tr><td style="font-weight:bold;vertical-align:top;">HTTP_CACHE_CONTROL</td><td style="vertical-align:top;">:</td><td><div>max-age=0</div></td></tr><tr><td style="font-weight:bold;vertical-align:top;">HTTP_CONNECTION</td><td style="vertical-align:top;">:</td><td><div>keep-alive</div></td></tr><tr><td style="font-weight:bold;vertical-align:top;">HTTP_COOKIE</td><td style="vertical-align:top;">:</td><td><div>session_id_bundjalung=&quot;5136:96586c82-5548-4c38-bfa3-241b9d2f2f9a&quot;</div></td></tr><tr><td style="font-weight:bold;vertical-align:top;">HTTP_HOST</td><td style="vertical-align:top;">:</td><td><div>localhost:8100</div></td></tr><tr><td style="font-weight:bold;vertical-align:top;">HTTP_REFERER</td><td style="vertical-align:top;">:</td><td><div>http://localhost:8100/Bundjalung/learning/page/Sounds</div></td></tr><tr><td style="font-weight:bold;vertical-align:top;">HTTP_USER_AGENT</td><td style="vertical-align:top;">:</td><td><div>Mozilla/5.0 (Macintosh; Intel Mac OS X 10_10_0) AppleWebKit/537.36 (KHTML, like Gecko) Chrome/40.0.2214.94 Safari/537.36</div></td></tr><tr><td style="font-weight:bold;vertical-align:top;">PATH_INFO</td><td style="vertical-align:top;">:</td><td><div>/Bundjalung/plugin_wiki/edit_page/crow_in_tree.png</div></td></tr><tr><td style="font-weight:bold;vertical-align:top;">QUERY_STRING</td><td style="vertical-align:top;">:</td><td><div></div></td></tr><tr><td style="font-weight:bold;vertical-align:top;">REMOTE_ADDR</td><td style="vertical-align:top;">:</td><td><div>127.0.0.1</div></td></tr><tr><td style="font-weight:bold;vertical-align:top;">REMOTE_PORT</td><td style="vertical-align:top;">:</td><td><div>34883</div></td></tr><tr><td style="font-weight:bold;vertical-align:top;">REQUEST_METHOD</td><td style="vertical-align:top;">:</td><td><div>GET</div></td></tr><tr><td style="font-weight:bold;vertical-align:top;">SCRIPT_NAME</td><td style="vertical-align:top;">:</td><td><div></div></td></tr><tr><td style="font-weight:bold;vertical-align:top;">SERVER_NAME</td><td style="vertical-align:top;">:</td><td><div>djurumin.cities.org.au</div></td></tr><tr><td style="font-weight:bold;vertical-align:top;">SERVER_PORT</td><td style="vertical-align:top;">:</td><td><div>8100</div></td></tr><tr><td style="font-weight:bold;vertical-align:top;">SERVER_PROTOCOL</td><td style="vertical-align:top;">:</td><td><div>HTTP/1.1</div></td></tr><tr><td style="font-weight:bold;vertical-align:top;">SERVER_SOFTWARE</td><td style="vertical-align:top;">:</td><td><div>Rocket 1.2.6</div></td></tr><tr><td style="font-weight:bold;vertical-align:top;">app_folders</td><td style="vertical-align:top;">:</td><td><div>set([&#x27;/usr/local/web2py/applications/welcome/&#x27;, &#x27;/usr/local/web2py/applications/Bundjalung/&#x27;, &#x27;/usr/local/web2py/applications/admin/&#x27;])</div></td></tr><tr><td style="font-weight:bold;vertical-align:top;">applications_parent</td><td style="vertical-align:top;">:</td><td><div>/usr/local/web2py</div></td></tr><tr><td style="font-weight:bold;vertical-align:top;">cmd_args</td><td style="vertical-align:top;">:</td><td><div><table></table></div></td></tr><tr><td style="font-weight:bold;vertical-align:top;">cmd_options</td><td style="vertical-align:top;">:</td><td><div>&lt;Values at 0x169ba28: {&#x27;verbose&#x27;: False, &#x27;ip&#x27;: &#x27;localhost&#x27;, &#x27;debuglevel&#x27;: 30, &#x27;with_scheduler&#x27;: False, &#x27;ips&#x27;: [&#x27;129.94.172.253&#x27;], &#x27;shutdown_timeout&#x27;: 5, &#x27;taskbar&#x27;: False, &#x27;with_coverage&#x27;: False, &#x27;scheduler_groups&#x27;: None, &#x27;port&#x27;: 8100, &#x27;maxthreads&#x27;: None, &#x27;softcron&#x27;: False, &#x27;server_name&#x27;: &#x27;djurumin.cities.org.au&#x27;, &#x27;bpython&#x27;: False, &#x27;nogui&#x27;: False, &#x27;pid_filename&#x27;: &#x27;httpserver.pid&#x27;, &#x27;extcron&#x27;: False, &#x27;runcron&#x27;: False, &#x27;run_system_tests&#x27;: False, &#x27;test&#x27;: None, &#x27;folder&#x27;: &#x27;/usr/local/web2py&#x27;, &#x27;config&#x27;: &#x27;&#x27;, &#x27;minthreads&#x27;: None, &#x27;shell&#x27;: None, &#x27;run&#x27;: &#x27;&#x27;, &#x27;log_filename&#x27;: &#x27;httpserver.log&#x27;, &#x27;profiler_dir&#x27;: None, &#x27;args&#x27;: [&#x27;&#x27;], &#x27;socket_timeout&#x27;: 5, &#x27;ssl_ca_certificate&#x27;: None, &#x27;scheduler&#x27;: None, &#x27;interfaces&#x27;: None, &#x27;ssl_private_key&#x27;: &#x27;&#x27;, &#x27;gae&#x27;: None, &#x27;password&#x27;: &#x27;AK131391&#x27;, &#x27;request_queue_size&#x27;: 5, &#x27;ssl_certificate&#x27;: &#x27;&#x27;, &#x27;cronjob&#x27;: False, &#x27;numthreads&#x27;: None, &#x27;quiet&#x27;: False, &#x27;import_models&#x27;: False, &#x27;timeout&#x27;: 10, &#x27;plain&#x27;: False, &#x27;nobanner&#x27;: False}&gt;</div></td></tr><tr><td style="font-weight:bold;vertical-align:top;">db_sessions</td><td style="vertical-align:top;">:</td><td><div>set([&#x27;Bundjalung&#x27;])</div></td></tr><tr><td style="font-weight:bold;vertical-align:top;">debugging</td><td style="vertical-align:top;">:</td><td><div>False</div></td></tr><tr><td style="font-weight:bold;vertical-align:top;">gluon_parent</td><td style="vertical-align:top;">:</td><td><div>/usr/local/web2py</div></td></tr><tr><td style="font-weight:bold;vertical-align:top;">http_accept</td><td style="vertical-align:top;">:</td><td><div>image/webp,*/*;q=0.8</div></td></tr><tr><td style="font-weight:bold;vertical-align:top;">http_accept_encoding</td><td style="vertical-align:top;">:</td><td><div>gzip, deflate, sdch</div></td></tr><tr><td style="font-weight:bold;vertical-align:top;">http_accept_language</td><td style="vertical-align:top;">:</td><td><div>en-US,en;q=0.8</div></td></tr><tr><td style="font-weight:bold;vertical-align:top;">http_cache_control</td><td style="vertical-align:top;">:</td><td><div>max-age=0</div></td></tr><tr><td style="font-weight:bold;vertical-align:top;">http_connection</td><td style="vertical-align:top;">:</td><td><div>keep-alive</div></td></tr><tr><td style="font-weight:bold;vertical-align:top;">http_cookie</td><td style="vertical-align:top;">:</td><td><div>session_id_bundjalung=&quot;5136:96586c82-5548-4c38-bfa3-241b9d2f2f9a&quot;</div></td></tr><tr><td style="font-weight:bold;vertical-align:top;">http_host</td><td style="vertical-align:top;">:</td><td><div>localhost:8100</div></td></tr><tr><td style="font-weight:bold;vertical-align:top;">http_referer</td><td style="vertical-align:top;">:</td><td><div>http://localhost:8100/Bundjalung/learning/page/Sounds</div></td></tr><tr><td style="font-weight:bold;vertical-align:top;">http_user_agent</td><td style="vertical-align:top;">:</td><td><div>Mozilla/5.0 (Macintosh; Intel Mac OS X 10_10_0) AppleWebKit/537.36 (KHTML, like Gecko) Chrome/40.0.2214.94 Safari/537.36</div></td></tr><tr><td style="font-weight:bold;vertical-align:top;">is_jython</td><td style="vertical-align:top;">:</td><td><div>False</div></td></tr><tr><td style="font-weight:bold;vertical-align:top;">is_pypy</td><td style="vertical-align:top;">:</td><td><div>False</div></td></tr><tr><td style="font-weight:bold;vertical-align:top;">is_source</td><td style="vertical-align:top;">:</td><td><div>True</div></td></tr><tr><td style="font-weight:bold;vertical-align:top;">local_hosts</td><td style="vertical-align:top;">:</td><td><div><table><tr><td><div>129.94.172.253</div></td></tr><tr><td><div>djurumin.cse.unsw.EDU.AU</div></td></tr><tr><td><div>::ffff:127.0.0.1</div></td></tr><tr><td><div>::1</div></td></tr><tr><td><div>djurumin.cities.org.au</div></td></tr><tr><td><div>127.0.0.1</div></td></tr></table></div></td></tr><tr><td style="font-weight:bold;vertical-align:top;">path_info</td><td style="vertical-align:top;">:</td><td><div>/Bundjalung/plugin_wiki/edit_page/crow_in_tree.png</div></td></tr><tr><td style="font-weight:bold;vertical-align:top;">query_string</td><td style="vertical-align:top;">:</td><td><div></div></td></tr><tr><td style="font-weight:bold;vertical-align:top;">remote_addr</td><td style="vertical-align:top;">:</td><td><div>127.0.0.1</div></td></tr><tr><td style="font-weight:bold;vertical-align:top;">remote_port</td><td style="vertical-align:top;">:</td><td><div>34883</div></td></tr><tr><td style="font-weight:bold;vertical-align:top;">request_method</td><td style="vertical-align:top;">:</td><td><div>GET</div></td></tr><tr><td style="font-weight:bold;vertical-align:top;">request_uri</td><td style="vertical-align:top;">:</td><td><div>/Bundjalung/plugin_wiki/edit_page/crow_in_tree.png</div></td></tr><tr><td style="font-weight:bold;vertical-align:top;">script_name</td><td style="vertical-align:top;">:</td><td><div></div></td></tr><tr><td style="font-weight:bold;vertical-align:top;">server_name</td><td style="vertical-align:top;">:</td><td><div>djurumin.cities.org.au</div></td></tr><tr><td style="font-weight:bold;vertical-align:top;">server_port</td><td style="vertical-align:top;">:</td><td><div>8100</div></td></tr><tr><td style="font-weight:bold;vertical-align:top;">server_protocol</td><td style="vertical-align:top;">:</td><td><div>HTTP/1.1</div></td></tr><tr><td style="font-weight:bold;vertical-align:top;">server_software</td><td style="vertical-align:top;">:</td><td><div>Rocket 1.2.6</div></td></tr><tr><td style="font-weight:bold;vertical-align:top;">web2py_original_uri</td><td style="vertical-align:top;">:</td><td><div>/Bundjalung/plugin_wiki/edit_page/crow_in_tree.png</div></td></tr><tr><td style="font-weight:bold;vertical-align:top;">web2py_path</td><td style="vertical-align:top;">:</td><td><div>/usr/local/web2py</div></td></tr><tr><td style="font-weight:bold;vertical-align:top;">web2py_version</td><td style="vertical-align:top;">:</td><td><div>2.9.12-stable+timestamp.2015.01.17.06.11.03</div></td></tr><tr><td style="font-weight:bold;vertical-align:top;">wsgi.errors</td><td style="vertical-align:top;">:</td><td><div>&lt;open file &#x27;&lt;stderr&gt;&#x27;, mode &#x27;w&#x27; at 0x7f3b25e89270&gt;</div></td></tr><tr><td style="font-weight:bold;vertical-align:top;">wsgi.file_wrapper</td><td style="vertical-align:top;">:</td><td><div>&lt;class wsgiref.util.FileWrapper at 0x162dd50&gt;</div></td></tr><tr><td style="font-weight:bold;vertical-align:top;">wsgi.input</td><td style="vertical-align:top;">:</td><td><div>&lt;socket._fileobject object at 0x7f3af848abd0&gt;</div></td></tr><tr><td style="font-weight:bold;vertical-align:top;">wsgi.multiprocess</td><td style="vertical-align:top;">:</td><td><div>False</div></td></tr><tr><td style="font-weight:bold;vertical-align:top;">wsgi.multithread</td><td style="vertical-align:top;">:</td><td><div>True</div></td></tr><tr><td style="font-weight:bold;vertical-align:top;">wsgi.run_once</td><td style="vertical-align:top;">:</td><td><div>False</div></td></tr><tr><td style="font-weight:bold;vertical-align:top;">wsgi.url_scheme</td><td style="vertical-align:top;">:</td><td><div>http</div></td></tr><tr><td style="font-weight:bold;vertical-align:top;">wsgi.version</td><td style="vertical-align:top;">:</td><td><div><table><tr><td><div>1</div></td></tr><tr><td><div>0</div></td></tr></table></div></td></tr><tr><td style="font-weight:bold;vertical-align:top;">wsgi_errors</td><td style="vertical-align:top;">:</td><td><div>&lt;open file &#x27;&lt;stderr&gt;&#x27;, mode &#x27;w&#x27; at 0x7f3b25e89270&gt;</div></td></tr><tr><td style="font-weight:bold;vertical-align:top;">wsgi_file_wrapper</td><td style="vertical-align:top;">:</td><td><div>&lt;class wsgiref.util.FileWrapper at 0x162dd50&gt;</div></td></tr><tr><td style="font-weight:bold;vertical-align:top;">wsgi_input</td><td style="vertical-align:top;">:</td><td><div>&lt;socket._fileobject object at 0x7f3af848abd0&gt;</div></td></tr><tr><td style="font-weight:bold;vertical-align:top;">wsgi_multiprocess</td><td style="vertical-align:top;">:</td><td><div>False</div></td></tr><tr><td style="font-weight:bold;vertical-align:top;">wsgi_multithread</td><td style="vertical-align:top;">:</td><td><div>True</div></td></tr><tr><td style="font-weight:bold;vertical-align:top;">wsgi_run_once</td><td style="vertical-align:top;">:</td><td><div>False</div></td></tr><tr><td style="font-weight:bold;vertical-align:top;">wsgi_url_scheme</td><td style="vertical-align:top;">:</td><td><div>http</div></td></tr><tr><td style="font-weight:bold;vertical-align:top;">wsgi_version</td><td style="vertical-align:top;">:</td><td><div><table><tr><td><div>1</div></td></tr><tr><td><div>0</div></td></tr></table></div></td></tr></table></div></td></tr><tr><td style="font-weight:bold;vertical-align:top;">extension</td><td style="vertical-align:top;">:</td><td><div>html</div></td></tr><tr><td style="font-weight:bold;vertical-align:top;">folder</td><td style="vertical-align:top;">:</td><td><div>/usr/local/web2py/applications/Bundjalung/</div></td></tr><tr><td style="font-weight:bold;vertical-align:top;">function</td><td style="vertical-align:top;">:</td><td><div>edit_page</div></td></tr><tr><td style="font-weight:bold;vertical-align:top;">global_settings</td><td style="vertical-align:top;">:</td><td><div><table><tr><td style="font-weight:bold;vertical-align:top;">app_folders</td><td style="vertical-align:top;">:</td><td><div>set([&#x27;/usr/local/web2py/applications/welcome/&#x27;, &#x27;/usr/local/web2py/applications/Bundjalung/&#x27;, &#x27;/usr/local/web2py/applications/admin/&#x27;])</div></td></tr><tr><td style="font-weight:bold;vertical-align:top;">applications_parent</td><td style="vertical-align:top;">:</td><td><div>/usr/local/web2py</div></td></tr><tr><td style="font-weight:bold;vertical-align:top;">cmd_args</td><td style="vertical-align:top;">:</td><td><div><table></table></div></td></tr><tr><td style="font-weight:bold;vertical-align:top;">cmd_options</td><td style="vertical-align:top;">:</td><td><div>&lt;Values at 0x169ba28: {&#x27;verbose&#x27;: False, &#x27;ip&#x27;: &#x27;localhost&#x27;, &#x27;debuglevel&#x27;: 30, &#x27;with_scheduler&#x27;: False, &#x27;ips&#x27;: [&#x27;129.94.172.253&#x27;], &#x27;shutdown_timeout&#x27;: 5, &#x27;taskbar&#x27;: False, &#x27;with_coverage&#x27;: False, &#x27;scheduler_groups&#x27;: None, &#x27;port&#x27;: 8100, &#x27;maxthreads&#x27;: None, &#x27;softcron&#x27;: False, &#x27;server_name&#x27;: &#x27;djurumin.cities.org.au&#x27;, &#x27;bpython&#x27;: False, &#x27;nogui&#x27;: False, &#x27;pid_filename&#x27;: &#x27;httpserver.pid&#x27;, &#x27;extcron&#x27;: False, &#x27;runcron&#x27;: False, &#x27;run_system_tests&#x27;: False, &#x27;test&#x27;: None, &#x27;folder&#x27;: &#x27;/usr/local/web2py&#x27;, &#x27;config&#x27;: &#x27;&#x27;, &#x27;minthreads&#x27;: None, &#x27;shell&#x27;: None, &#x27;run&#x27;: &#x27;&#x27;, &#x27;log_filename&#x27;: &#x27;httpserver.log&#x27;, &#x27;profiler_dir&#x27;: None, &#x27;args&#x27;: [&#x27;&#x27;], &#x27;socket_timeout&#x27;: 5, &#x27;ssl_ca_certificate&#x27;: None, &#x27;scheduler&#x27;: None, &#x27;interfaces&#x27;: None, &#x27;ssl_private_key&#x27;: &#x27;&#x27;, &#x27;gae&#x27;: None, &#x27;password&#x27;: &#x27;AK131391&#x27;, &#x27;request_queue_size&#x27;: 5, &#x27;ssl_certificate&#x27;: &#x27;&#x27;, &#x27;cronjob&#x27;: False, &#x27;numthreads&#x27;: None, &#x27;quiet&#x27;: False, &#x27;import_models&#x27;: False, &#x27;timeout&#x27;: 10, &#x27;plain&#x27;: False, &#x27;nobanner&#x27;: False}&gt;</div></td></tr><tr><td style="font-weight:bold;vertical-align:top;">db_sessions</td><td style="vertical-align:top;">:</td><td><div>set([&#x27;Bundjalung&#x27;])</div></td></tr><tr><td style="font-weight:bold;vertical-align:top;">debugging</td><td style="vertical-align:top;">:</td><td><div>False</div></td></tr><tr><td style="font-weight:bold;vertical-align:top;">gluon_parent</td><td style="vertical-align:top;">:</td><td><div>/usr/local/web2py</div></td></tr><tr><td style="font-weight:bold;vertical-align:top;">is_jython</td><td style="vertical-align:top;">:</td><td><div>False</div></td></tr><tr><td style="font-weight:bold;vertical-align:top;">is_pypy</td><td style="vertical-align:top;">:</td><td><div>False</div></td></tr><tr><td style="font-weight:bold;vertical-align:top;">is_source</td><td style="vertical-align:top;">:</td><td><div>True</div></td></tr><tr><td style="font-weight:bold;vertical-align:top;">local_hosts</td><td style="vertical-align:top;">:</td><td><div><table><tr><td><div>129.94.172.253</div></td></tr><tr><td><div>djurumin.cse.unsw.EDU.AU</div></td></tr><tr><td><div>::ffff:127.0.0.1</div></td></tr><tr><td><div>::1</div></td></tr><tr><td><div>djurumin.cities.org.au</div></td></tr><tr><td><div>127.0.0.1</div></td></tr></table></div></td></tr><tr><td style="font-weight:bold;vertical-align:top;">web2py_version</td><td style="vertical-align:top;">:</td><td><div>2.9.12-stable+timestamp.2015.01.17.06.11.03</div></td></tr></table></div></td></tr><tr><td style="font-weight:bold;vertical-align:top;">is_https</td><td style="vertical-align:top;">:</td><td><div>False</div></td></tr><tr><td style="font-weight:bold;vertical-align:top;">is_local</td><td style="vertical-align:top;">:</td><td><div>True</div></td></tr><tr><td style="font-weight:bold;vertical-align:top;">is_restful</td><td style="vertical-align:top;">:</td><td><div>False</div></td></tr><tr><td style="font-weight:bold;vertical-align:top;">is_sheduler</td><td style="vertical-align:top;">:</td><td><div>None</div></td></tr><tr><td style="font-weight:bold;vertical-align:top;">is_shell</td><td style="vertical-align:top;">:</td><td><div>None</div></td></tr><tr><td style="font-weight:bold;vertical-align:top;">now</td><td style="vertical-align:top;">:</td><td><div>datetime.datetime(2015, 2, 5, 17, 26, 58, 342821)</div></td></tr><tr><td style="font-weight:bold;vertical-align:top;">url</td><td style="vertical-align:top;">:</td><td><div>/Bundjalung/plugin_wiki/edit_page/crow_in_tree.png</div></td></tr><tr><td style="font-weight:bold;vertical-align:top;">utcnow</td><td style="vertical-align:top;">:</td><td><div>datetime.datetime(2015, 2, 5, 6, 26, 58, 342856)</div></td></tr><tr><td style="font-weight:bold;vertical-align:top;">uuid</td><td style="vertical-align:top;">:</td><td><div>Bundjalung/127.0.0.1.2015-02-05.17-26-58.f4ac236d-32fb-4e97-9f27-9051c753024b</div></td></tr><tr><td style="font-weight:bold;vertical-align:top;">wsgi</td><td style="vertical-align:top;">:</td><td><div>&lt;gluon.main.LazyWSGI object at 0x7f3af4234210&gt;</div></td></tr></table></div>'
tRp69
sS'frames'
p70
(lp71
(dp72
S'file'
p73
S'/usr/local/web2py/gluon/restricted.py'
p74
sS'dump'
p75
(dp76
S'code'
p77
S"'# This file was developed by Massimo Di Pierro\\n#...\\n   \\n\\nresponse._vars=response._caller(edit_page)\\n'"
p78
sS'layer'
p79
S"'/usr/local/web2py/applications/Bundjalung/controllers/plugin_wiki.py'"
p80
sS'global compile2'
p81
S'<function compile2>'
p82
sS'ccode'
p83
S'undefined'
p84
ssS'lnum'
p85
I223
sS'lines'
p86
(dp87
I224
S'        exec ccode in environment'
p88
sI225
S'    except HTTP:'
p89
sI226
S'        raise'
p90
sI227
S'    except RestrictedError:'
p91
sI218
S"    environment['__name__'] = '__restricted__'"
p92
sI219
S'    try:'
p93
sI220
S'        if isinstance(code, types.CodeType):'
p94
sI221
S'            ccode = code'
p95
sI222
S'        else:'
p96
sI223
S'            ccode = compile2(code, layer)'
p97
ssS'call'
p98
S"(code='# This file was developed by Massimo Di Pierro\\n#...\\n   \\n\\nresponse._vars=response._caller(edit_page)\\n', environment={'A': <class 'gluon.html.A'>, 'ANY_OF': <class 'gluon.validators.ANY_OF'>, 'ASSIGNJS': <function ASSIGNJS>, 'Auth': <class 'gluon.tools.Auth'>, 'B': <class 'gluon.html.B'>, 'BEAUTIFY': <class 'gluon.html.BEAUTIFY'>, 'BODY': <class 'gluon.html.BODY'>, 'BR': <class 'gluon.html.BR'>, 'BUTTON': <class 'gluon.html.BUTTON'>, 'CAT': <class 'gluon.html.CAT'>, ...}, layer='/usr/local/web2py/applications/Bundjalung/controllers/plugin_wiki.py')"
p99
sS'func'
p100
S'restricted'
p101
sa(dp102
g73
S'/usr/local/web2py/gluon/restricted.py'
p103
sg75
(dp104
S'builtincompile'
p105
S'<built-in function compile>'
p106
sS'code'
p107
S"'# This file was developed by Massimo Di Pierro\\n#...\\n   \\n\\nresponse._vars=response._caller(edit_page)\\n'"
p108
sS'code.rstrip'
p109
S'<built-in method rstrip of str object>'
p110
sS').replace'
p111
g84
sS'layer'
p112
S"'/usr/local/web2py/applications/Bundjalung/controllers/plugin_wiki.py'"
p113
ssg85
I206
sg86
(dp114
I201
S'def compile2(code, layer):'
p115
sI202
S'    """'
p116
sI203
S"    The ``+'\\\\n'`` is necessary else compile fails when code ends in a comment."
p117
sI204
S'    """'
p118
sI205
S''
sI206
S"    return compile(code.rstrip().replace('\\r\\n', '\\n') + '\\n', layer, 'exec')"
p119
sI207
S''
sI208
S''
sI209
S"def restricted(code, environment=None, layer='Unknown'):"
p120
sI210
S'    """'
p121
ssg98
S"(code='# This file was developed by Massimo Di Pierro\\n#...\\n   \\n\\nresponse._vars=response._caller(edit_page)\\n', layer='/usr/local/web2py/applications/Bundjalung/controllers/plugin_wiki.py')"
p122
sg100
S'compile2'
p123
sasS'pyver'
p124
S'Python 2.7.3: /bin/python (prefix: /usr)'
p125
sS'session'
p126
g68
(S's\x02\n\x00\x00<div><table><tr><td style="font-weight:bold;vertical-align:top;">auth</td><td style="vertical-align:top;">:</td><td><div><table><tr><td style="font-weight:bold;vertical-align:top;">expiration</td><td style="vertical-align:top;">:</td><td><div>2592000</div></td></tr><tr><td style="font-weight:bold;vertical-align:top;">hmac_key</td><td style="vertical-align:top;">:</td><td><div>7a867b86-4fa0-425e-b42e-ba4d8335c0a4</div></td></tr><tr><td style="font-weight:bold;vertical-align:top;">last_visit</td><td style="vertical-align:top;">:</td><td><div>datetime.datetime(2015, 2, 5, 17, 10, 37, 840310)</div></td></tr><tr><td style="font-weight:bold;vertical-align:top;">remember_me</td><td style="vertical-align:top;">:</td><td><div>True</div></td></tr><tr><td style="font-weight:bold;vertical-align:top;">user</td><td style="vertical-align:top;">:</td><td><div><table><tr><td style="font-weight:bold;vertical-align:top;">Role_Name</td><td style="vertical-align:top;">:</td><td><div>teacher</div></td></tr><tr><td style="font-weight:bold;vertical-align:top;">email</td><td style="vertical-align:top;">:</td><td><div>ckutay@cities.org.au</div></td></tr><tr><td style="font-weight:bold;vertical-align:top;">first_name</td><td style="vertical-align:top;">:</td><td><div>Cat</div></td></tr><tr><td style="font-weight:bold;vertical-align:top;">id</td><td style="vertical-align:top;">:</td><td><div>1L</div></td></tr><tr><td style="font-weight:bold;vertical-align:top;">last_name</td><td style="vertical-align:top;">:</td><td><div>Kutay</div></td></tr><tr><td style="font-weight:bold;vertical-align:top;">registration_id</td><td style="vertical-align:top;">:</td><td><div>0L</div></td></tr><tr><td style="font-weight:bold;vertical-align:top;">registration_key</td><td style="vertical-align:top;">:</td><td><div></div></td></tr><tr><td style="font-weight:bold;vertical-align:top;">reset_password_key</td><td style="vertical-align:top;">:</td><td><div></div></td></tr><tr><td style="font-weight:bold;vertical-align:top;">username</td><td style="vertical-align:top;">:</td><td><div>cat.kutay</div></td></tr></table></div></td></tr><tr><td style="font-weight:bold;vertical-align:top;">user_groups</td><td style="vertical-align:top;">:</td><td><div><table><tr><td style="font-weight:bold;vertical-align:top;">1</td><td style="vertical-align:top;">:</td><td><div>developer</div></td></tr></table></div></td></tr></table></div></td></tr><tr><td style="font-weight:bold;vertical-align:top;">flash</td><td style="vertical-align:top;">:</td><td><div>None</div></td></tr></table></div>'
tRp127
sS'etype'
p128
S"<type 'exceptions.SyntaxError'>"
p129
sS'date'
p130
S'Thu Feb  5 17:27:00 2015'
p131
sS'response'
p132
g68
(S's\x1f1\x00\x00<div><table><tr><td style="font-weight:bold;vertical-align:top;">body</td><td style="vertical-align:top;">:</td><td><div>&lt;cStringIO.StringO object at 0x7f3b15690688&gt;</div></td></tr><tr><td style="font-weight:bold;vertical-align:top;">cookies</td><td style="vertical-align:top;">:</td><td><div><table><tr><td style="font-weight:bold;vertical-align:top;">session_id_bundjalung</td><td style="vertical-align:top;">:</td><td><div>5136:96586c82-5548-4c38-bfa3-241b9d2f2f9a<table><tr><td style="font-weight:bold;vertical-align:top;">comment</td><td style="vertical-align:top;">:</td><td><div></div></td></tr><tr><td style="font-weight:bold;vertical-align:top;">domain</td><td style="vertical-align:top;">:</td><td><div></div></td></tr><tr><td style="font-weight:bold;vertical-align:top;">expires</td><td style="vertical-align:top;">:</td><td><div></div></td></tr><tr><td style="font-weight:bold;vertical-align:top;">httponly</td><td style="vertical-align:top;">:</td><td><div></div></td></tr><tr><td style="font-weight:bold;vertical-align:top;">max-age</td><td style="vertical-align:top;">:</td><td><div></div></td></tr><tr><td style="font-weight:bold;vertical-align:top;">path</td><td style="vertical-align:top;">:</td><td><div>/</div></td></tr><tr><td style="font-weight:bold;vertical-align:top;">secure</td><td style="vertical-align:top;">:</td><td><div></div></td></tr><tr><td style="font-weight:bold;vertical-align:top;">version</td><td style="vertical-align:top;">:</td><td><div></div></td></tr></table></div></td></tr></table></div></td></tr><tr><td style="font-weight:bold;vertical-align:top;">delimiters</td><td style="vertical-align:top;">:</td><td><div><table><tr><td><div>{{</div></td></tr><tr><td><div>}}</div></td></tr></table></div></td></tr><tr><td style="font-weight:bold;vertical-align:top;">files</td><td style="vertical-align:top;">:</td><td><div><table><tr><td><div>/Bundjalung/static/plugin_multiselect/jquery.dimensions.js</div></td></tr><tr><td><div>/Bundjalung/static/plugin_multiselect/jquery.multiselect.js</div></td></tr><tr><td><div>/Bundjalung/static/plugin_multiselect/jquery.multiselect.css</div></td></tr></table></div></td></tr><tr><td style="font-weight:bold;vertical-align:top;">flash</td><td style="vertical-align:top;">:</td><td><div></div></td></tr><tr><td style="font-weight:bold;vertical-align:top;">form_label_separator</td><td style="vertical-align:top;">:</td><td><div>: </div></td></tr><tr><td style="font-weight:bold;vertical-align:top;">formstyle</td><td style="vertical-align:top;">:</td><td><div>table3cols</div></td></tr><tr><td style="font-weight:bold;vertical-align:top;">generic_patterns</td><td style="vertical-align:top;">:</td><td><div><table><tr><td><div>*</div></td></tr></table></div></td></tr><tr><td style="font-weight:bold;vertical-align:top;">headers</td><td style="vertical-align:top;">:</td><td><div><table><tr><td style="font-weight:bold;vertical-align:top;">X-Powered-By</td><td style="vertical-align:top;">:</td><td><div>web2py</div></td></tr></table></div></td></tr><tr><td style="font-weight:bold;vertical-align:top;">menu</td><td style="vertical-align:top;">:</td><td><div><table></table></div></td></tr><tr><td style="font-weight:bold;vertical-align:top;">menuAbout</td><td style="vertical-align:top;">:</td><td><div><table><tr><td><div><table><tr><td><div>People</div></td></tr><tr><td><div>False</div></td></tr><tr><td><div>/Bundjalung/plugin_wiki/page/people</div></td></tr></table></div></td></tr><tr><td><div><table><tr><td><div>Traditional country</div></td></tr><tr><td><div>False</div></td></tr><tr><td><div>/Bundjalung/plugin_wiki/page/traditional_country</div></td></tr></table></div></td></tr><tr><td><div><table><tr><td><div>Language background</div></td></tr><tr><td><div>False</div></td></tr><tr><td><div>/Bundjalung/plugin_wiki/page/language_background</div></td></tr></table></div></td></tr><tr><td><div><table><tr><td><div>Outline of the language</div></td></tr><tr><td><div>False</div></td></tr><tr><td><div>/Bundjalung/plugin_wiki/page/outline_of_the_language</div></td></tr></table></div></td></tr><tr><td><div><table><tr><td><div>Outline of resources</div></td></tr><tr><td><div>False</div></td></tr><tr><td><div>/Bundjalung/plugin_wiki/page/outline_of_resources</div></td></tr></table></div></td></tr><tr><td><div><table><tr><td><div>History of the project</div></td></tr><tr><td><div>False</div></td></tr><tr><td><div>/Bundjalung/plugin_wiki/page/history</div></td></tr></table></div></td></tr></table></div></td></tr><tr><td style="font-weight:bold;vertical-align:top;">menuLogin</td><td style="vertical-align:top;">:</td><td><div><table><tr><td><div><table><tr><td><div>Logout</div></td></tr><tr><td><div>False</div></td></tr><tr><td><div>/Bundjalung/user/logout</div></td></tr></table></div></td></tr></table></div></td></tr><tr><td style="font-weight:bold;vertical-align:top;">menuResource</td><td style="vertical-align:top;">:</td><td><div><table><tr><td><div><table><tr><td><div>Dictionary Book</div></td></tr><tr><td><div>False</div></td></tr><tr><td><div>/Bundjalung/plugin_wiki/page/dictionary</div></td></tr></table></div></td></tr><tr><td><div><table><tr><td><div>Language Resources</div></td></tr><tr><td><div>False</div></td></tr><tr><td><div>/Bundjalung/plugin_wiki/resources</div></td></tr></table></div></td></tr><tr><td><div><table><tr><td><div>Written examples</div></td></tr><tr><td><div>False</div></td></tr><tr><td><div>/Bundjalung/plugin_wiki/page/written_examples_of_the_language</div></td></tr></table></div></td></tr><tr><td><div><table><tr><td><div>WorkSheets</div></td></tr><tr><td><div>False</div></td></tr><tr><td><div>/Bundjalung/learning/pages</div></td></tr></table></div></td></tr></table></div></td></tr><tr><td style="font-weight:bold;vertical-align:top;">menuTop</td><td style="vertical-align:top;">:</td><td><div><table><tr><td><div><table><tr><td><div>Home</div></td></tr><tr><td><div>False</div></td></tr><tr><td><div>/Bundjalung/plugin_wiki/index.html</div></td></tr></table></div></td></tr><tr><td><div><table><tr><td><div>About Us</div></td></tr><tr><td><div>False</div></td></tr><tr><td><div>/Bundjalung/plugin_wiki/page/about_us</div></td></tr></table></div></td></tr><tr><td><div><table><tr><td><div>Dictionary</div></td></tr><tr><td><div>False</div></td></tr><tr><td><div>/Bundjalung/language/dictionary</div></td></tr></table></div></td></tr><tr><td><div><table><tr><td><div>Resources</div></td></tr><tr><td><div>False</div></td></tr><tr><td><div>/Bundjalung/plugin_wiki/resources</div></td></tr></table></div></td></tr><tr><td><div><table><tr><td><div>Accept Regos</div></td></tr><tr><td><div>False</div></td></tr><tr><td><div>/Bundjalung/appadmin/update/db.auth_user/registration_key/pending</div></td></tr></table></div></td></tr><tr><td><div><table><tr><td><div>Change Password</div></td></tr><tr><td><div>False</div></td></tr><tr><td><div>/Bundjalung/user/change_password</div></td></tr></table></div></td></tr><tr><td><div><table><tr><td><div>Contact</div></td></tr><tr><td><div>False</div></td></tr><tr><td><div>/Bundjalung/plugin_wiki/contact</div></td></tr></table></div></td></tr></table></div></td></tr><tr><td style="font-weight:bold;vertical-align:top;">menu_edit</td><td style="vertical-align:top;">:</td><td><div><table><tr><td><div><table><tr><td><div>Edit</div></td></tr><tr><td><div>False</div></td></tr><tr><td><div>/admin/design/Bundjalung</div></td></tr><tr><td><div><table><tr><td><div><table><tr><td><div>Controller</div></td></tr><tr><td><div>False</div></td></tr><tr><td><div>/admin/edit/Bundjalung/controllers/default.py</div></td></tr></table></div></td></tr><tr><td><div><table><tr><td><div>View</div></td></tr><tr><td><div>False</div></td></tr><tr><td><div>/admin/edit/Bundjalung/views/plugin_wiki/edit_page.html</div></td></tr></table></div></td></tr><tr><td><div><table><tr><td><div>Layout</div></td></tr><tr><td><div>False</div></td></tr><tr><td><div>/admin/edit/Bundjalung/views/layout.html</div></td></tr></table></div></td></tr><tr><td><div><table><tr><td><div>Stylesheet</div></td></tr><tr><td><div>False</div></td></tr><tr><td><div>/admin/edit/Bundjalung/static/base.css</div></td></tr></table></div></td></tr><tr><td><div><table><tr><td><div>DB Model</div></td></tr><tr><td><div>False</div></td></tr><tr><td><div>/admin/edit/Bundjalung/models/db.py</div></td></tr></table></div></td></tr><tr><td><div><table><tr><td><div>Menu Model</div></td></tr><tr><td><div>False</div></td></tr><tr><td><div>/admin/edit/Bundjalung/models/menu.py</div></td></tr></table></div></td></tr><tr><td><div><table><tr><td><div>Database</div></td></tr><tr><td><div>False</div></td></tr><tr><td><div>/Bundjalung/appadmin</div></td></tr></table></div></td></tr></table></div></td></tr></table></div></td></tr></table></div></td></tr><tr><td style="font-weight:bold;vertical-align:top;">menu_spread</td><td style="vertical-align:top;">:</td><td><div><table><tr><td><div><table><tr><td><div>Index</div></td></tr><tr><td><div>False</div></td></tr><tr><td><div>/Bundjalung/plugin_spreadsheet</div></td></tr><tr><td><div><table></table></div></td></tr></table></div></td></tr></table></div></td></tr><tr><td style="font-weight:bold;vertical-align:top;">meta</td><td style="vertical-align:top;">:</td><td><div><table></table></div></td></tr><tr><td style="font-weight:bold;vertical-align:top;">models_to_run</td><td style="vertical-align:top;">:</td><td><div><table><tr><td><div>^\\w+\\.py$</div></td></tr><tr><td><div>^plugin_wiki/\\w+\\.py$</div></td></tr><tr><td><div>^plugin_wiki/edit_page/\\w+\\.py$</div></td></tr></table></div></td></tr><tr><td style="font-weight:bold;vertical-align:top;">postprocessing</td><td style="vertical-align:top;">:</td><td><div><table></table></div></td></tr><tr><td style="font-weight:bold;vertical-align:top;">session_client</td><td style="vertical-align:top;">:</td><td><div>127.0.0.1</div></td></tr><tr><td style="font-weight:bold;vertical-align:top;">session_cookie_compression_level</td><td style="vertical-align:top;">:</td><td><div>None</div></td></tr><tr><td style="font-weight:bold;vertical-align:top;">session_cookie_expires</td><td style="vertical-align:top;">:</td><td><div>2592000</div></td></tr><tr><td style="font-weight:bold;vertical-align:top;">session_cookie_key</td><td style="vertical-align:top;">:</td><td><div>None</div></td></tr><tr><td style="font-weight:bold;vertical-align:top;">session_data_name</td><td style="vertical-align:top;">:</td><td><div>session_data_bundjalung</div></td></tr><tr><td style="font-weight:bold;vertical-align:top;">session_db_record_id</td><td style="vertical-align:top;">:</td><td><div>5136L</div></td></tr><tr><td style="font-weight:bold;vertical-align:top;">session_db_table</td><td style="vertical-align:top;">:</td><td><div>&lt;Table web2py_session_Bundjalung (id,locked,client_ip,created_datetime,modified_datetime,unique_key,session_data)&gt;</div></td></tr><tr><td style="font-weight:bold;vertical-align:top;">session_db_unique_key</td><td style="vertical-align:top;">:</td><td><div>96586c82-5548-4c38-bfa3-241b9d2f2f9a</div></td></tr><tr><td style="font-weight:bold;vertical-align:top;">session_hash</td><td style="vertical-align:top;">:</td><td><div>27b9ca0d639c282bff8a589b16baf687</div></td></tr><tr><td style="font-weight:bold;vertical-align:top;">session_id</td><td style="vertical-align:top;">:</td><td><div>5136:96586c82-5548-4c38-bfa3-241b9d2f2f9a</div></td></tr><tr><td style="font-weight:bold;vertical-align:top;">session_id_name</td><td style="vertical-align:top;">:</td><td><div>session_id_bundjalung</div></td></tr><tr><td style="font-weight:bold;vertical-align:top;">session_masterapp</td><td style="vertical-align:top;">:</td><td><div>Bundjalung</div></td></tr><tr><td style="font-weight:bold;vertical-align:top;">session_new</td><td style="vertical-align:top;">:</td><td><div>False</div></td></tr><tr><td style="font-weight:bold;vertical-align:top;">session_storage_type</td><td style="vertical-align:top;">:</td><td><div>db</div></td></tr><tr><td style="font-weight:bold;vertical-align:top;">start</td><td style="vertical-align:top;">:</td><td><div>True</div></td></tr><tr><td style="font-weight:bold;vertical-align:top;">status</td><td style="vertical-align:top;">:</td><td><div>200</div></td></tr><tr><td style="font-weight:bold;vertical-align:top;">title</td><td style="vertical-align:top;">:</td><td><div>Bundjalung-Yugambeh Dictionary</div></td></tr><tr><td style="font-weight:bold;vertical-align:top;">view</td><td style="vertical-align:top;">:</td><td><div>plugin_wiki/edit_page.html</div></td></tr></table></div>'
tRp133
sS'locals'
p134
(dp135
g4
S"'/usr/local/web2py/applications/Bundjalung/controllers/plugin_wiki.py'"
p136
sg6
S"'# This file was developed by Massimo Di Pierro\\n#...\\n   \\n\\nresponse._vars=response._caller(edit_page)\\n'"
p137
sssS'traceback'
p138
S'Traceback (most recent call last):\n  File "/usr/local/web2py/gluon/restricted.py", line 223, in restricted\n    ccode = compile2(code, layer)\n  File "/usr/local/web2py/gluon/restricted.py", line 206, in compile2\n    return compile(code.rstrip().replace(\'\\r\\n\', \'\\n\') + \'\\n\', layer, \'exec\')\n  File "/usr/local/web2py/applications/Bundjalung/controllers/plugin_wiki.py", line 455\n    else;\n        ^\nSyntaxError: invalid syntax\n'
p139
s.