(dp1
S'output'
p2
S"<type 'exceptions.NameError'> name 'string' is not defined"
p3
sS'layer'
p4
S'/usr/local/web2py/applications/Bundjalung/models/plugin_wiki.py'
p5
sS'code'
p6
S'# This file was developed by Massimo Di Pierro\n# It is released under BSD, MIT and GPL2 licenses\n\n###################################################\n# required parameters set by default if not set\n###################################################\ntag=None\n\nDEFAULT={\n    \'editor\' : False,\n    \'mode\'   : \'html\',    # \'markmin\' or \'html\' for wysiwyg editor\n    \'level\'  : 3,            # 1 - wiki only, 2 - widgets enables, 3 - remplate render enabled\n    \'migrate\': False,         # set to False in production\n    \'theme\'  : \'cupertino\', # the jquery-ui theme, mapped into plugin_wiki/ui/%(theme)s/jquery-ui-1.8.1.custom.css\n    \'widgets\' : \'all\',       # list of widgets to be made available\n    \'authorize_attachments\' : False # shoudl attachment be restricted to the page?\n\n}\nif auth.user:\n   DEFAULT = {\n    \'editor\' : auth.user and auth.user.Role_Name==\'editor\' or auth.user.Role_Name==\'teacher\' or auth.user_id==1, # if current user a editor?\n    \'mode\'   : \'html\',    # \'markmin\' or \'html\' for wysiwyg editor\n    \'level\'  : 3,            # 1 - wiki only, 2 - widgets enables, 3 - remplate render enabled\n    \'migrate\': False,         # set to False in production\n    \'theme\'  : \'cupertino\', # the jquery-ui theme, mapped into plugin_wiki/ui/%(theme)s/jquery-ui-1.8.1.custom.css\n    \'widgets\' : \'all\',       # list of widgets to be made available\n    \'authorize_attachments\' : False # shoudl attachment be restricted to the page?\n    }\n\n\ndef _():\n    """\n    the mambo jambo here makes sure that \n    PluginManager.wiki.xxx is also exposed as plugin_wiki_xxx\n    this is to minimize Storage lookup\n    """\n    if not \'db\' in globals() or not \'auth\' in globals():\n        raise HTTP(500,"plugin_wiki requires \'db\' and \'auth\'")\n    from gluon.tools import PluginManager\n    prefix=\'plugin_wiki_\'\n    keys=dict(item for item in DEFAULT.items() if not prefix+item[0] in globals())\n    plugins = PluginManager(\'wiki\',**keys)\n    globals().update(dict((prefix+key,keys[key]) for key in keys))\n_()\n\n\n###################################################\n# js and css modules required by the plugin\n###################################################\nfor _f in [\'plugin_wiki/kendo/css/kendo.common.min.css\',\n\t\'plugin_wiki/kendo/css/kendo.default.min.css\',\n\t\'plugin_wiki/kendo/css/kendo.dataviz.min.css\',\n\t\'plugin_wiki/kendo/css/kendo.dataviz.default.min.css\',\n\t\'plugin_wiki/kendo/css/kendo.common.min.css\',\n\t\'plugin_wiki/kendo/js/kendo.all.min.js\',\n##\t\'plugin_wiki/kendo/js/jquery.min.js\',\n]:\n#    response.files.append(URL(\'static\',_f))\n     pass\n\n\n##for _f in [\'plugin_wiki/jqgrid/css/ui.jqgrid.css\',\n##           \'plugin_wiki/jqgrid/js/i18n/grid.locale-en.js\',              \n##           \'plugin_wiki/jqgrid/js/jquery.jqGrid.min.js\',\n##           \'plugin_wiki/slideshow/jquery.cycle.min.js\',\n##\t   \'plugin_multiselect/jquery.dimensions.js\',\n##\t   \'plugin_multiselect/jquery.multiselect.js\',\n##\t   \'plugin_multiselect/jquery.multiselect.css\',\n# #          \'plugin_wiki/rating/jquery.rating.css\',\n##           \'plugin_wiki/rating/jquery.rating.js\',\n##           \'plugin_wiki/markitup/skins/markitup/style.css\',\n##\t   \'plugin_wiki/markitup/sets/markitup/style.css\',\n##\t   \'plugin_wiki/elrte-1.3/js/jquery-1.6.1.min.js\',\n##\t   \'plugin_wiki/elrte-1.3/js/jquery-ui-1.8.13.custom.min.js\',\n##\t   \'plugin_wiki/elrte-1.3/css/smoothness/jquery-ui-1.8.13.custom.css\',\n##\n##\t   \'plugin_wiki/elrte-1.3/css/elrte.full.css\',\n##\t   \'plugin_wiki/elrte-1.3/js/i18n/elrte.en.js\',\n##\t   \'plugin_wiki/elrte-1.3/css/elrte.full.css\'\n##\n\n##]:          \n##    response.files.append(URL(\'static\',_f))\n\n\ndef multiselect_widget(f,v):\n    import uuid\n    d_id = "multiselect-" + str(uuid.uuid4())[:8]\n    wrapper = DIV(_id=d_id)\n    inp = SQLFORM.widgets.options.widget(f,v)\n    inp[\'_multiple\'] = \'multiple\'\n    inp[\'_style\'] = \'min-width: %spx;\' % (len(f.name) * 20 + 50)\n    if v:\n        if not isinstance(v,list): v = str(v).split(\'|\')\n        opts = inp.elements(\'option\')\n        for op in opts:\n            if op[\'_value\'] in v:\n                op[\'_selected\'] = \'selected\'            \n    scr = SCRIPT(\'jQuery("#%s select").multiSelect({\'\\\n                 \'"Select Menu %s"});\' % (d_id,f.name))\n    wrapper.append(inp)\n    wrapper.append(scr)\n    if request.vars.get(inp[\'_id\']+\'[]\',None):\n        var = request.vars[inp[\'_id\']+\'[]\']\n        if not isinstance(var,list): var = [var]\n        request.vars[f.name] = var\n        del request.vars[inp[\'_id\']+\'[]\']\n    return wrapper\n\n\n###################################################\n# required tables\n###################################################\n\ndb.define_table(\'plugin_wiki_page\',\n                Field(\'slug\',\n                      requires=(IS_SLUG())),\n                Field(\'title\',default=\'\',\n                      requires=(IS_NOT_EMPTY(),IS_NOT_IN_DB(db,\'plugin_wiki_page.title\'))),\n                Field(\'is_public\',\'boolean\',default=True),\n                Field(\'worksheet\',string, length=1,default=\'F\'),\n                Field(\'summary\',length=500, default=""),\n\t\tField(\'body\',\'text\',default=\'\'),\n                Field(\'role\',db.auth_group,\n                      requires=IS_EMPTY_OR(IS_IN_DB(db,\'auth_group.id\',\'%(role)s\'))),\n                Field(\'tags\',\'text\'),\n                Field(\'changelog\',default=\'\'),\n\t\tField("is_active", \'boolean\', default=True),\n                auth.signature,\n                format = \'%(slug)s\', migrate=False)\n\ndb.plugin_wiki_page.slug.requires = [IS_NOT_EMPTY(), SlugValidator()]\ndb.plugin_wiki_page.tags.requires = IS_IN_DB(db, \'plugin_wiki_tag.id\', \'%(name)s\', multiple=True)\ndb.plugin_wiki_page.created_by.represent = represent_author\ndb.plugin_wiki_page.tags.widget=multiselect_widget\ndb.plugin_wiki_page.body.requires=IS_LENGTH(1000000)\n\ndb.define_table(\'plugin_wiki_page_archive\',\n                Field(\'current_record\',db.plugin_wiki_page),\n                db.plugin_wiki_page,\n                format = \'%(slug) %(modified_on)s\', migrate=plugin_wiki_migrate)\n\ndb.define_table(\'plugin_wiki_transcript\',\n                Field(\'slug\',\n                      requires=(IS_SLUG())),\n                Field(\'title\',default=\'\',\n                      requires=(IS_NOT_EMPTY(),IS_NOT_IN_DB(db,\'plugin_wiki_transcript.title\'))),\n                Field(\'is_public\',\'boolean\',default=True),\n\t\tField(\'summary\',length=500),\n                Field(\'body\',\'text\',default=\'\'),\n                Field(\'role\',db.auth_group,\n                      requires=IS_EMPTY_OR(IS_IN_DB(db,\'auth_group.id\',\'%(role)s\'))),\n                Field(\'changelog\',default=\'\'),\n\t\tField(\'is_active\', default=True),\n                auth.signature,\n                format = \'%(slug)s\', migrate=False)\n\ndb.plugin_wiki_transcript.slug.requires = [IS_NOT_EMPTY(), SlugValidator()]\ndb.plugin_wiki_transcript.created_by.represent = represent_author\ndb.plugin_wiki_transcript.body.requires=IS_LENGTH(1000000)\n\ndb.define_table(\'plugin_wiki_transcript_archive\',\n                Field(\'current_record\',db.plugin_wiki_transcript),\n                db.plugin_wiki_transcript,\n                format = \'%(slug) %(modified_on)s\', migrate=plugin_wiki_migrate)\n\ndb.define_table(\'plugin_wiki_attachment\',\n                Field(\'tablename\',writable=False,readable=False),\n                Field(\'record_id\',\'integer\',writable=False,readable=False),\n                Field(\'name\',requires=IS_NOT_EMPTY()),\n                Field(\'filename\',\'upload\',requires=IS_NOT_EMPTY(),autodelete=True),\n                auth.signature,\n                format=\'%(name)s\', migrate=plugin_wiki_migrate)\n\ndb.define_table(\'Resources\',\n                Field(\'id\', \'integer\',writable=False,readable=False),\n                Field(\'name\',\'upload\',requires=IS_NOT_EMPTY(),autodelete=True),\n                Field(\'title\',\'string\',length=100),\n                Field(\'Collected_by\',\'string\',length=100),\n\t\tField(\'desc\',\'text\'),\n\t\tField(\'Public\',\'boolean\', default=False),\n                migrate=plugin_wiki_migrate)\n\n\n\ndb.define_table(\'plugin_wiki_comment\',\n                Field(\'tablename\',\n                      writable=False,readable=False),\n                Field(\'record_id\',\'integer\',\n                      writable=False,readable=False),\n                Field(\'body\',requires=IS_NOT_EMPTY(),label=\'Your comment\'),\n                auth.signature,\n                migrate=plugin_wiki_migrate)\n\ndb.define_table(\'plugin_wiki_images\',\n                Field(\'id\',\'integer\',writable=False,readable=False),\n\t\tField(\'name\',requires=IS_NOT_EMPTY()),\n                Field(\'filename\',\'upload\',requires=IS_NOT_EMPTY(),autodelete=True),\n                auth.signature,\n                format=\'%(name)s\', migrate=plugin_wiki_migrate)\n\n\ndb.define_table(\'plugin_wiki_tag\',\n                Field(\'name\',requires=IS_NOT_IN_DB(db,\'plugin_wiki_tag.name\')),\n                Field(\'parent\',requires=(IS_IN_DB(db,\'plugin_wiki_tag.name\') )),\n\t\tauth.signature,\n                format=\'%(name)s\', migrate=plugin_wiki_migrate)\n\n\ndb.define_table(\'plugin_wiki_link\', \n                Field(\'tag\',db.plugin_wiki_tag),   \n                Field(\'table_name\'),\n                Field(\'record_id\',\'integer\'), migrate=plugin_wiki_migrate)\n\n\ndb.define_table(\'plugin_wiki_rating\',\n                Field(\'tablename\'),\n                Field(\'record_id\',\'integer\'),\n                Field(\'rating\',\'double\'),\n                Field(\'counter\',\'integer\'))\n   \n   \ndb.define_table(\'plugin_wiki_rating_aux\',\n                Field(\'master\',db.plugin_wiki_rating),\n                Field(\'rating\',\'double\'),                \n                Field(\'created_by\',db.auth_user))\n   \n   \n###################################################\n# widgets embeddable in wiki pages\n###################################################\nclass PluginWikiWidgets(object):    \n    """\n    todo:\n    toc\n    in-place-wiki-edit\n    permission managemnt\n    voting plugin\n    """\n\n    ###############################################\n    # basic crud widgets (no ajax)\n    ###############################################\n\n    @staticmethod\n    def read(table,record_id=None):\n        """\n        ## read and display a record\n        - ``table`` is the name of a table\n        - ``record_id`` is a record number\n        """\n        if not record_id: record_id=request.args(-1)\n        #if not record_id.isdigit: return XML(\'no data\')\n\tif (table!="ALC" and table !="CLW"):\n        \treturn crud.read(db[table],record_id)\n\telse:\n\t\treturn crud.read(dblanguage[table],record_id)\n    @staticmethod\n    def _set_field_attributes(table,readonly_fields=\'\',hidden_fields=\'\',default_fields=\'\'):\n        if readonly_fields: \n            for f in readonly_fields.split(\',\'):\n                db[table][f.strip()].writable=False\n        if hidden_fields: \n            for f in hidden_fields.split(\',\'):\n                db[table][f.strip()].writable=False\n                db[table][f.strip()].readable=False                \n        if default_fields:\n            for f in default_fields.split(\',\'):\n                (key,value) = f.split(\'=\')\n                db[table][key.strip()].default=value.strip()\n\n    @staticmethod\n    def create(table,message=\'\',next=\'\',readonly_fields=\'\',\n               hidden_fields=\'\',default_fields=\'\'):\n        """\n        ## display a record create form\n        - ``table`` is the name of a table\n        - ``message`` is a the message to be displayed after record is created\n        - ``next`` is where to redirect, example "page/index/[id]"\n        - ``readonly_fields`` is a list of comma separated fields\n        - ``hidden_fields`` is a list of comma separated fields \n        - ``default_fields`` is a list of comma separated "fieldname=value"\n        """\n        PluginWikiWidgets._set_field_attributes(table, readonly_fields,hidden_fields,default_fields)\n        return crud.create(db[table],message=message,next=next)\n\n    @staticmethod\n    def update(table,record_id=\'\',message=\'\',next=\'\',\n               readonly_fields=\'\',hidden_fields=\'\',default_fields=\'\'):\n        """\n        ## display a record update form\n        - ``table`` is the name of a table\n        - ``record_id`` is he record to be updated or {{=request.args(-1)}}\n        - ``message`` is a the message to be displayed after record is created\n        - ``next`` is where to redirect, example "page/index/[id]"\n        - ``readonly_fields`` is a list of comma separated fields\n        - ``hidden_fields`` is a list of comma separated fields\n        - ``default_fields`` is a list of comma separated "fieldname=value"\n        """\n\n        PluginWikiWidgets._set_field_attributes(table, readonly_fields,hidden_fields,default_fields)\n        if not record_id: record_id=request.args(-1)\n        #if not record_id.isdigit(): record_id=None\n        return crud.update(db[table],record_id,message=message,next=next)\n\n    @staticmethod\n    def select(table,query_field=\'\',query_value=\'\',fields=\'\'):\n        """\n        ## Lists all records in the table\n        - ``table`` is the name of a table\n        - ``query_field`` and ``query_value`` if present will filter records by query_field==query_value \n        - ``fields`` is a list of comma separate fields to be displayed\n        """\n        query=None\n        if query_field:\n            query = db[table][query_field]==query_value\n        if fields:\n            fields=[\'%s.%s\' % (table,f.strip()) for f in fields.split(\',\')]\n        else:\n            fields=None\n        return crud.select(db[table],query=query,fields=fields,headers=\'fieldname:capitalize\')\n\n    @staticmethod\n    def search(table,fields=\'\'):\n        """\n        ## A Widgets for selecting records\n        - ``table`` is the name of a table\n        - ``fields`` is a list of comma separated fields to be displayed\n        """\n        if fields:\n            fields=[\'%s.%s\' % (table,f.strip()) for f in fields.split(\',\')]\n        else:\n            fields=None\n        search, results = crud.search(db[table])\n        if not results: results=T(\'no results\')\n        else: results=SQLTABLE(results,fields=fields,headers=\'fieldname:capitalize\')\n        return DIV(search,results)\n\n    ###############################################\n    # advanced crud (jqgrid with ajax search)\n    ###############################################\n    @staticmethod    \n    def jqgrid(table,fieldname=None,fieldvalue=None,col_widths=\'\',\n               colnames=None,_id=None,fields=\'\',\n               col_width=80,width=700,height=300,id=None):\n        """\n        ## Embed a jqGrid plugin\n        - ``table`` is the table name\n        - ``fieldname``, ``fieldvalue`` are an optional filter (fieldname==fieldvalue)\n        - ``_id`` is the "id" of the DIV that contains the jqGrid\n        - ``fields`` is a list of columns names to be displayed\n        - ``colnames`` is a list of column headers\n        - ``col_width`` is the width of each column (default) \n        - ``height`` is the height of the jqGrid\n        - ``width`` is the width of the jqGrid\n        """\n        from gluon.serializers import json\n        _id = _id or \'jqgrid_%s\' % table\n        if not fields:\n            fields = [x.strip() for x in db[table].fields if db[table][x.strip()].readable]\n        elif isinstance(fields,str):\n            fields = [x.strip() for x in fields.split(\',\')]\n        else:\n            fields = fields\n        if col_widths:\n            if isinstance(col_widths,(list,tuple)):\n                col_widths = [str(x) for x in col_widths]\n            else:\n                col_widths = [x.strip() for x in col_widths.split(\',\')]\n\t    if width==\'auto\':\n\t\twidth=sum([int(x) for x in col_widths])\n\telif not col_widths:\n            col_widths = [col_width for x in fields]\n        if isinstance(colnames,str):\n            colnames = [x.strip() for x in colnames.split(\',\')]\n        else:\n            colnames = [(db[table][x].label or x) for x in fields]\n        colmodel = [{\'name\':x,\'index\':x, \'width\':col_widths[i], \'sortable\':True}\\\n                        for i,x in enumerate(fields)]\n        callback = URL(\'plugin_wiki\',\'jqgrid\',\n                       vars=dict(tablename=table,\n                                 columns=\',\'.join(fields),\n                                 fieldname=fieldname or \'\',\n                                 fieldvalue=fieldvalue,\n                                 ),\n                       hmac_key=auth.settings.hmac_key,\n                       salt=auth.user_id\n                       )\n        script="""\njQuery(document).ready(function(){jQuery("#%(id)s").jqGrid({ url:\'%(callback)s\', datatype: "json", colNames: %(colnames)s,colModel:%(colmodel)s, rowNum:10, rowList:[20,50,100], pager: \'#%(id)s_pager\', viewrecords: true,height:%(height)s});jQuery("#%(id)s").jqGrid(\'navGrid\',\'#%(id)s_pager\',{search:true,add:false,edit:false,del:false});jQuery("#%(id)s").setGridWidth(%(width)s,false);jQuery(\'select.ui-pg-selbox,input.ui-pg-input\').css(\'width\',\'50px\');});\n""" % dict(callback=callback,colnames=json(colnames),\n           colmodel=json(colmodel),id=_id,height=height,width=width)\n        return TAG[\'\'](TABLE(_id=_id),\n                       DIV(_id=_id+"_pager"),\n                       SCRIPT(script))\n\n    ###############################################\n    # scientific widgets (latex, charting)\n    ###############################################\n    @staticmethod\n    def latex(expression):\n        """\n        ## Uses Google charting API to embed LaTeX \n        """\n        return XML(\'<img src="http://chart.apis.google.com/chart?cht=tx&chl=%s" align="center"/>\' % expression.replace(\'"\',\'\\"\'))\n\n    @staticmethod\n    def pie_chart(data=\'1,2,3\',names=\'a,b,c\',width=300,height=150,align=\'center\'):\n        """\n        ## Uses Google charting API to embed a pie chart\n        - ``data`` is a list of comma separated values \n        - ``names`` is a list of comma separated labels (one for data item)\n        - ``width`` is the width of the image\n        - ``height`` is the height of the image\n        - ``align`` determines the alignment of the image\n        """\n        if isinstance(data,str):\n            data = data.replace(\' \',\'\')\n        elif isinstance(data,dict):\n            data = \'|\'.join(\',\'.join(str(y) for y in s) for s in data.values())\n        elif isinstance(data,list):\n            data = \',\'.join(str(y) for y in data)\n        if isinstance(names,str):\n            names = \'|\'.join(name.strip() for name in names.split(\',\'))\n        else:\n            names = \'|\'.join(name for name in names)\n        return XML(\'<img src="http://chart.apis.google.com/chart?cht=p3&chd=s:cEj9U&chs=%(width)sx%(height)s&chl=%(names)s&chd=t:%(data)s" align="%(align)s">\' % dict(data=data,width=width,height=height,names=names,align=align))\n\n    @staticmethod\n    def bar_chart(data=\'1,2,3\',names=\'a,b,c\',width=300,height=150,align=\'center\'):\n        """\n        ## Uses Google charting API to embed a bar chart\n        - ``data`` is a list of comma separated values \n        - ``names`` is a list of comma separated labels (one for data item)\n        - ``width`` is the width of the image\n        - ``height`` is the height of the image\n        - ``align`` determines the alignment of the image\n        """\n        if isinstance(data,str):\n            data = data.replace(\' \',\'\')\n        elif isinstance(data,dict):\n            data = \'|\'.join(\',\'.join(str(y) for y in s) for s in data.values())\n        elif isinstance(data,list):\n            data = \',\'.join(str(y) for y in data)\n        if isinstance(names,str):\n            names = \'|\'.join(name.strip() for name in names.split(\',\'))\n        else:\n            names = \'|\'.join(name for name in names)\n        height=int(width)/2\n        return XML(\'<img src="http://chart.apis.google.com/chart?chxt=x,y&cht=bvs&chd=s:cEj9U&chls=2.0&chs=%(width)sx%(height)s&chxl=0:|%(names)s&chd=t:%(data)s" align="%(align)s">\' % dict(data=data,width=width,height=height,names=names,align=align))\n\n    ###############################################\n    # media widgets\n    ############################################### \n    @staticmethod\n    def slideshow(links=None,table=None,field=\'image\',transition=\'fade\',width=200,height=200):\n        """\n        ## Embeds a slideshow\n        It gets the images from a table\n\n        - ``table`` is the table name\n        - ``field`` is the upload field in the table that contains images\n        - ``transition`` determines the type of transition, e.g. fade, etc.\n        - ``width`` is the width of the image\n        - ``height`` is the height of the image\n        """\n\n        import random\n        id=str(random.random())[2:]\n        if table:\n            rows = db(db[table].id>0).select()\n            if db[table][field].type==\'upload\':\n                images = [IMG(_src=URL(\'default\',\'download\',args=row[field])) for row in rows]\n            else:\n                images = [IMG(_src=row[field]) for row in rows]\n        elif links:\n            images = [IMG(_src=link) for link in links.split(\',\')]\n        else:\n            images = []\n        return DIV(SCRIPT("jQuery(document).ready(function() {jQuery(\'#slideshow%s\').cycle({fx: \'%s\'});});" % (id,transition)),DIV(_id=\'slideshow\'+id,*images))\n\n    @staticmethod\n    def youtube(code,width=400,height=250):\n        """\n        ## Embeds a youtube video (by code)\n        - ``code`` is the code of the video\n        - ``width`` is the width of the image\n        - ``height`` is the height of the image\n        """\n\n        return XML("""<object width="%(width)s" height="%(height)s"><param name="movie" value="http://www.youtube.com/v/%(code)s&hl=en_US&fs=1&"></param><param name="allowFullScreen" value="true"></param><param name="allowscriptaccess" value="always"></param><embed src="http://www.youtube.com/v/%(code)s&hl=en_US&fs=1&" type="application/x-shockwave-flash" allowscriptaccess="always" allowfullscreen="true" width="%(width)s" height="%(height)s"></embed></object>""" % dict(code=code, width=width, height=height))\n\n    @staticmethod\n    def vimeo(code,width=400,height=250):\n        """\n        ## Embeds a viemo video (by code)\n        - ``code`` is the code of the video\n        - ``width`` is the width of the image\n        - ``height`` is the height of the image\n        """\n        return XML("""<object width="%(width)s" height="%(height)s"><param name="allowfullscreen" value="true" /><param name="allowscriptaccess" value="always" /><param name="movie" value="http://vimeo.com/moogaloop.swf?clip_id=%(code)s&amp;server=vimeo.com&amp;show_title=1&amp;show_byline=1&amp;show_portrait=0&amp;color=&amp;fullscreen=1" /><embed src="http://vimeo.com/moogaloop.swf?clip_id=%(code)s&amp;server=vimeo.com&amp;show_title=1&amp;show_byline=1&amp;show_portrait=0&amp;color=&amp;fullscreen=1" type="application/x-shockwave-flash" allowfullscreen="true" allowscriptaccess="always" width="%(width)s" height="%(height)s"></embed></object>""" % dict(code=code, width=width, height=height))\n\n    @staticmethod\n    def mediaplayer(src,width=400,height=250):\n        """\n        ## Embeds a media file (such as flash video or an mp3 file)\n        - ``src`` is the src of the video\n        - ``width`` is the width of the image\n        - ``height`` is the height of the image\n        """\n        return XML(\'<embed allowfullscreen="true" allowscriptaccess="always" flashvars="height=%(height)s&width=%(width)s&file=%(src)s" height="%(height)spx" src="%(url)s" width="%(width)spx"></embed>\'%dict(url=URL(\'static\',\'plugin_wiki/mediaplayer.swf\'),src=src,width=width,height=height))\n\n    ###############################################\n    # social widgets (comments and tags)\n    ###############################################\n    @staticmethod\n    def comments(table=\'None\',record_id=None):\n        """\n        ## Embeds comments in the page\n        Comments can be linked to a table and/or a record\n\n        - ``table`` is the table name \n        - ``record_id`` is the id of the record\n        """\n        return LOAD(\'plugin_wiki\',\'comment\',\n                    args=(table,record_id or 0),ajax=True)\n\n    @staticmethod\n    def tags(table=\'None\',record_id=None):\n        """\n        ## Embeds tags in the page\n        tags can be linked to a table and/or a record\n\n        - ``table`` is the table name \n        - ``record_id`` is the id of the record\n        """\n\n        return LOAD(\'plugin_wiki\',\'tags\',\n                    args=(table,record_id or 0),ajax=True)\n\n    @staticmethod\n    def tag_cloud():\n        """\n        ## Embeds a tag cloud\n        """\n\n        return LOAD(\'plugin_wiki\',\'cloud\')\n\n\n    @staticmethod\n    def aggregator(feed, max_entries=5):\n        """\n        ## Embeds a feed aggregator\n        - ``name`` is the aggregator name\n        - ``feed`` is a list comma separated feed urls (http://rss.cbc.ca/lineup/topstories.xml)\n        - ``max_entries`` is the max number of displayed entries (default=5)\n        """\n        import gluon.contrib.feedparser as feedparser\n        lfeeds = isinstance(feeds,(str,unicode)) and feeds or feeds.split(",")\n        content = DIV(A(d.channel.title,_href=d.channel.link,_rel=d.channel.description),\n                      UL(),_id=\'web2py_aggregator\')\n        for feed in lfeeds:\n            d = feedparser.parse(feed)\n            for entry in d.entries[:max_entried]:\n                content[1] += LI(A(entry.title,\' \',SPAN(entry.updated),\n                                   _href=entry.link,_rel=entry.descstiption,\n                                   _class=web2py_aggregator_link))\n        return content\n\n    @staticmethod\n    def map(  table=\'auth_user\', width=400, height=200):\n        """\n        ## Embeds a Google map\n        Gets points on the map from a table\n        \n        - ``table`` is the table name\n        - ``width`` is the map width\n        - ``height`` is the map height\n\n        The table must have columns: latidude, longitude and map_popup.\n        When clicking on a dot, the map_popup message will appear. \n        """\n\n        import os\n        import gluon.template\n        content = open(os.path.join(request.folder,\'views\',\'plugin_wiki\',\n                                    \'map.html\'),\'rb\').read()\n        context = dict(rows=db(db[table].id>0).select(),\n                       width=\'%spx\'%width,height=\'%spx\'%height)\n        return XML(gluon.template.render(content=content,context=context))\n\n        \n\n    @staticmethod\n    def star_rating(table, record_id, splitstars=False):\n        """            \n        ## Create a star rating widget for a given record in given table.    \n        if given table has a field called \'rating\' average rating will also added to it.\n        it will save ratings from logedin users only.                        \n                       \n        - ``table`` is the table name             \n        - ``record_id`` is the id of record for which to show a rating widget.\n        - ``splitstars`` if set to True will display split stars.            \n        """\n        import uuid\n        id = uuid.uuid4()\n        row=db(db.plugin_wiki_rating.tablename==table)(db.plugin_wiki_rating.record_id==record_id).select().first()\n        rating = row.rating if row else 0\n        callback = URL(\'plugin_wiki\', \'star_rate\', args = [table,record_id])\n        incr = 0.5 if splitstars else 1\n        return TAG[\'\'](DIV(_id=\'star\'+str(id),_class=\'rating\'),\n                       SCRIPT("jQuery(document).ready(function(){jQuery(\'%(uid)s\').rating(\'%(callback)s\',{increment:%(incr)s, maxvalue:5, curvalue:%(rating)s});});" % dict(uid=\'#star\'+str(id), callback=callback,incr=incr, rating=rating)))\n\n    @staticmethod\n    def iframe(src, width=400, height=300):\n        """\n        embed a page in an <iframe></iframe>\n        """\n        return TAG.iframe(_src=src, _width=width, _height=height)\n\n    @staticmethod\n    def load_url(src):\n        """\n        loads the contenct of the url via ajax\n        and traps forms\n        """\n        return LOAD(url=src)\n    \n    @staticmethod\n    def load_action(action, controller=\'\', ajax=True):\n        """\n        loads the content of URL(request.application, controller, action) via ajax\n        and traps forms\n        """\n        return LOAD(controller, action, ajax=ajax)\n\n\n###################################################\n# main class to intantiate the widget\n###################################################\nclass PluginWiki(object):\n\n    def __init__(self):\n        import re\n        regex = re.compile(\'(?P<s> *)(?P<t>.+) +(?P<k>\\S+)\')\n        menu_page = db(db.plugin_wiki_page.slug==\'meta-menu\').select().first()\n        code_page = db(db.plugin_wiki_page.slug==\'meta-code\').select().first()\n        if code_page and request.controller==\'plugin_wiki\' and not request.function in (\'page_edit\', \'page_history\'):\n            try:\n                exec(re.sub(\'\\r\\n|\\n\\r|\\r\',\'\\n\',code_page.body.strip()),\n                     globals())\n            except Exception, e:\n                import traceback\n                if plugin_wiki_editor:\n                    response.flash = DIV(H4(\'Execution error in page _proc\'),              \n                                         PRE(traceback.format_exc()))\n                else:\n                    response.flash = \'Internal error, please contact the administrator\'\n        if menu_page:\n            response.menu=[]\n            parents = [(-1,response.menu)]\n            for line in menu_page.body.split(\'\\n\'):\n                match = regex.match(line)\n                if not match: continue\n                indent=len(match.group(\'s\'))\n                title=match.group(\'t\')\n                url=match.group(\'k\')\n                if url.lower()==\'none\':\n                    url=URL(\'plugin_wiki\',\'page\',args=request.args)\n                elif url.startswith(\'page:\'):\n                    url=URL(\'plugin_wiki\',\'page\',args=url[5:])\n                while indent<=parents[-1][0]:\n                    parents.pop()\n                newtree=[]\n                parents[-1][1].append((title,False,url,newtree)) \n                parents.append((indent,newtree))\n        self.extra = self.extra_blocks()\n\n    # this embeds page attachments\n    class attachments(object):   \n        def __init__(self,tablename,record_id=0,\n                     caption=\'Attachments\',close="Close",\n                     id=None,width=70,height=70,\n                     source=None):\n            import uuid\n            self.tablename=tablename\n            self.record_id=record_id\n            self.caption=caption\n            self.close=close\n            self.id=id or str(uuid.uuid4())\n            self.width=width\n            self.height=height\n            if not source:\n                source=URL(\'plugin_wiki\',\'attachments\',args=(tablename,record_id))\n            self.source = source\n        def xml(self):\n            return \'<div id="%(id)s" style="display:none"><div style="position:fixed;top:0%%;left:0%%;width:100%%;height:100%%;background-color:black;z-index:1001;-moz-opacity:0.8;opacity:.80;opacity:0.8;"></div><div style="position:fixed;top:%(top)s%%;left:%(left)s%%;width:%(width)s%%;height:%(height)s%%;padding:16px;border:2px solid black;background-color:white;opacity:1.0;z-index:1002;overflow:auto;-moz-border-radius: 10px; -webkit-border-radius: 10px;"><span style="font-weight:bold">%(title)s</span><span style="float:right">[<a href="#" onclick="jQuery(\\\'#%(id)s\\\').hide();return false;">%(close)s</a>]</span><hr/><div style="width:100%%;height:90%%;" id="c%(id)s"><iframe id="attachments_modal_content" style="width:100%%;height:100%%;border:0">%(loading)s</iframe></div></div></div><a href="#" onclick="jQuery(\\\'#attachments_modal_content\\\').attr(\\\'src\\\',\\\'%(source)s\\\');jQuery(\\\'#%(id)s\\\').fadeIn(); return false" id="plugin_wiki_open_attachments"">%(title)s</a>\' % dict(title=self.caption,source=self.source,close=self.close,id=self.id,left=(100-self.width)/2,top=(100-self.height)/2,width=self.width,height=self.height,loading=T(\'loading...\'))\n\n    class widget_builder(object):   \n        def __init__(self,\n                     caption=\'Widget Builder\',close="Close",\n                     id=None,width=70,height=70):\n            import uuid\n            self.caption=caption\n            self.close=close\n            self.id=id or str(uuid.uuid4())\n            self.width=width\n            self.height=height\n            self.source=URL(\'plugin_wiki\',\'widget_builder\')\n        def xml(self):\n            return \'<div id="%(id)s" style="display:none"><div style="position:fixed;top:0%%;left:0%%;width:100%%;height:100%%;background-color:black;z-index:1001;-moz-opacity:0.8;opacity:.80;opacity:0.8;"></div><div style="position:fixed;top:%(top)s%%;left:%(left)s%%;width:%(width)s%%;height:%(height)s%%;padding:16px;border:2px solid black;background-color:white;opacity:1.0;z-index:1002;overflow:auto;-moz-border-radius: 10px; -webkit-border-radius: 10px;"><span style="font-weight:bold">%(title)s</span><span style="float:right">[<a href="#" onclick="jQuery(\\\'#%(id)s\\\').hide();return false;">%(close)s</a>]</span><hr/><div style="width:100%%;height:90%%;" id="c%(id)s"><iframe id="widget_builder_modal_content" style="width:100%%;height:100%%;border:0">%(loading)s</iframe></div></div></div><a href="#" onclick="jQuery(\\\'#widget_builder_modal_content\\\').attr(\\\'src\\\',\\\'%(source)s\\\');jQuery(\\\'#%(id)s\\\').fadeIn(); return false" id="plugin_wiki_open_attachments"">%(title)s</a>\' % dict(title=self.caption,source=self.source,close=self.close,id=self.id,left=(100-self.width)/2,top=(100-self.height)/2,width=self.width,height=self.height,loading=T(\'loading...\'))\n\n    def pdf(self,text):\n        if not plugin_wiki_mode==\'markmin\':\n            raise RuntimeError, "Not supported"\n\n        response.headers[\'content-type\'] = \'application/pdf\'\n        return "Not implemented"\n\n    def render(self,text,level=plugin_wiki_level,page_url=URL()):\n        import re\n        if plugin_wiki_mode==\'html\':\n            return self.render_html(text,page_url)        \n        elif plugin_wiki_mode==\'markmin\':\n            return self.render_markmin(text,page_url)\n        else:\n            raise RuntimeError, "Not supported"\n\n    def parse_value(self,code):\n        code = code.replace(\'[page]\',request.args(0))\n        code = code.replace(\'[id]\',request.args(1) or \'\')\n        code = code.replace(\'[application]\',request.application)\n        code = code.replace(\'[client]\',request.client)\n        if plugin_wiki_level>2:\n            import gluon.template\n            return gluon.template.render(code,context=globals())\n        return code\n\n    def render_widget(self,code):        \n        try:\n            items = [x.strip().split(\':\',1) for x in code.split(\'\\n\')]\n            args = dict((item[0].strip(), self.parse_value(item[1].strip())) for item in items)\n            name = args.get(\'name\',\'\')\n            if not name or name[0]==\'_\': return \'ERROR\'\n            del args[\'name\']\n            html = getattr(PluginWikiWidgets,name)(**args)\n            if isinstance(html,str):\n                return html\n            elif html:\n                return html.xml()\n            else:\n                \'\'\n        except Exception,e:\n            if plugin_wiki_editor:\n                import traceback\n                return \'<div class="error"><pre>%s</pre></div>\' % traceback.format_exc()\n            else:\n                return \'<div class="error">system error</div>\'\n\n    def render_template(self,code):\n        import gluon.template\n        try:\n            return gluon.template.render(code,context=globals())\n        except Exception,e:\n            if plugin_wiki_editor:\n                import traceback\n                return \'<div class="error"><pre>%s</pre></div>\' % traceback.format_exc()\n            else:\n                return \'<div class="error">system error</div>\'\n\n    def extra_blocks(self):\n        extra = {}\n        LATEX = \'<img src="http://chart.apis.google.com/chart?cht=tx&chl=%s" align="center"/>\'\n        extra[\'latex\'] = lambda code: LATEX % code.replace(\'"\',\'\\"\')\n        extra[\'verbatim\'] = lambda code: cgi.escape(code)\n        extra[\'code\'] = lambda code: CODE(code,language=None).xml()\n        extra[\'code_python\'] = lambda code: CODE(code,language=\'python\').xml()\n        extra[\'code_c\'] = lambda code: CODE(code,language=\'c\').xml()\n        extra[\'code_cpp\'] = lambda code: CODE(code,language=\'cpp\').xml()\n        extra[\'code_java\'] = lambda code: CODE(code,language=\'java\').xml()\n        extra[\'code_html_plain\'] = lambda code: CODE(code,language=\'html_plain\').xml()\n        extra[\'code_html\'] = lambda code: CODE(code,language=\'html\').xml()\n        extra[\'code_web2py\'] = lambda code: CODE(code,language=\'web2py\').xml()\n        if plugin_wiki_level>1:\n            extra[\'widget\'] = lambda code: self.render_widget(code)\n        if plugin_wiki_level>2:\n            extra[\'template\'] = lambda code: self.render_template(code)\n        return extra\n\n    def render_markmin(self,text,page_url=URL()):\n        import re\n        att_url = URL(request.application,\'plugin_wiki\',\'attachment\')\n        session.plugin_wiki_attachments=[]\n        def register(match):\n            session.plugin_wiki_attachments.append(match.group(\'h\'))\n            return \'[[%s %s/%s\' % (match.group(\'t\'),att_url,match.group(\'h\'))\n        text = re.sub(\'\\[\\[(?P<t>[^\\[\\]]+)\\s+attachment:\\s*(?P<h>[\\w\\-\\.]+)\',\n                      register,text)\n        text = re.sub(\'\\[\\[(?P<t>[^\\[\\]]+) page:\',\'[[\\g<t> %s/\' % page_url,text)\n        return MARKMIN(text,extra=self.extra)\n\n    def render_html(self,text,page_url=URL()):\n        import re\n        text = text.replace(\'href="page:\',\'href="%s/\' % page_url) \n        att_url = URL(r=request,c=\'plugin_wiki\',f=\'attachment\')\n        text = text.replace(\'src="attachment:\', \'src="%s/\' % att_url)\n        regex_code = re.compile(\'``(?P<t>.*?)``:(?P<c>\\w+)\',re.S)\n        while True:\n            match=regex_code.search(text)\n            if not match:\n                break\n            if match.group(\'c\') in self.extra:\n                code = match.group(\'t\').strip().replace(\'<br>\',\'\')\n                html = self.extra[match.group(\'c\')](code)\n                text = text[:match.start()]+html+text[match.end():]\n        return XML(text,sanitize=plugin_wiki_level<2)\n\n    def embed_page(self,slug):\n        page=db(db.plugin_wiki_page.slug==slug).select().first()\n        if not page: return page\n        return XML(plugin_wiki.render(page.body))\n\n    def widget(self,name,*args,**kargs):\n        return getattr(PluginWikiWidgets,name)(*args,**kargs)\n\nplugin_wiki=PluginWiki()\n'
p7
sS'snapshot'
p8
(dp9
S'exception'
p10
(dp11
S'__hash__'
p12
S"<method-wrapper '__hash__' of exceptions.NameError object>"
p13
sS'__setattr__'
p14
S"<method-wrapper '__setattr__' of exceptions.NameError object>"
p15
sS'__reduce_ex__'
p16
S'<built-in method __reduce_ex__ of exceptions.NameError object>'
p17
sS'__getslice__'
p18
S"<method-wrapper '__getslice__' of exceptions.NameError object>"
p19
sS'__getitem__'
p20
S"<method-wrapper '__getitem__' of exceptions.NameError object>"
p21
sS'__setstate__'
p22
S'<built-in method __setstate__ of exceptions.NameError object>'
p23
sS'args'
p24
S'("name \'string\' is not defined",)'
p25
sS'__reduce__'
p26
S'<built-in method __reduce__ of exceptions.NameError object>'
p27
sS'__str__'
p28
S"<method-wrapper '__str__' of exceptions.NameError object>"
p29
sS'__format__'
p30
S'<built-in method __format__ of exceptions.NameError object>'
p31
sS'__getattribute__'
p32
S"<method-wrapper '__getattribute__' of exceptions.NameError object>"
p33
sS'__class__'
p34
S"<type 'exceptions.NameError'>"
p35
sS'__unicode__'
p36
S'<built-in method __unicode__ of exceptions.NameError object>'
p37
sS'__delattr__'
p38
S"<method-wrapper '__delattr__' of exceptions.NameError object>"
p39
sS'__subclasshook__'
p40
S'<built-in method __subclasshook__ of type object>'
p41
sS'__repr__'
p42
S"<method-wrapper '__repr__' of exceptions.NameError object>"
p43
sS'__dict__'
p44
S'{}'
p45
sS'__sizeof__'
p46
S'<built-in method __sizeof__ of exceptions.NameError object>'
p47
sS'__doc__'
p48
S"'Name not found globally.'"
p49
sS'__init__'
p50
S"<method-wrapper '__init__' of exceptions.NameError object>"
p51
sS'__new__'
p52
S'<built-in method __new__ of type object>'
p53
ssS'evalue'
p54
S"name 'string' is not defined"
p55
sS'request'
p56
cgluon.html
XML_unpickle
p57
(S's\xafZ\x00\x00<div><table><tr><td style="font-weight:bold;vertical-align:top;">ajax</td><td style="vertical-align:top;">:</td><td><div>False</div></td></tr><tr><td style="font-weight:bold;vertical-align:top;">application</td><td style="vertical-align:top;">:</td><td><div>Bundjalung</div></td></tr><tr><td style="font-weight:bold;vertical-align:top;">args</td><td style="vertical-align:top;">:</td><td><div><table><tr><td><div>Sounds</div></td></tr></table></div></td></tr><tr><td style="font-weight:bold;vertical-align:top;">cid</td><td style="vertical-align:top;">:</td><td><div>None</div></td></tr><tr><td style="font-weight:bold;vertical-align:top;">client</td><td style="vertical-align:top;">:</td><td><div>127.0.0.1</div></td></tr><tr><td style="font-weight:bold;vertical-align:top;">controller</td><td style="vertical-align:top;">:</td><td><div>plugin_wiki</div></td></tr><tr><td style="font-weight:bold;vertical-align:top;">cookies</td><td style="vertical-align:top;">:</td><td><div><table><tr><td style="font-weight:bold;vertical-align:top;">session_id_admin</td><td style="vertical-align:top;">:</td><td><div>127.0.0.1-53f623db-40ba-4a9e-8123-1bfe3a449aa4<table><tr><td style="font-weight:bold;vertical-align:top;">comment</td><td style="vertical-align:top;">:</td><td><div></div></td></tr><tr><td style="font-weight:bold;vertical-align:top;">domain</td><td style="vertical-align:top;">:</td><td><div></div></td></tr><tr><td style="font-weight:bold;vertical-align:top;">expires</td><td style="vertical-align:top;">:</td><td><div></div></td></tr><tr><td style="font-weight:bold;vertical-align:top;">httponly</td><td style="vertical-align:top;">:</td><td><div></div></td></tr><tr><td style="font-weight:bold;vertical-align:top;">max-age</td><td style="vertical-align:top;">:</td><td><div></div></td></tr><tr><td style="font-weight:bold;vertical-align:top;">path</td><td style="vertical-align:top;">:</td><td><div></div></td></tr><tr><td style="font-weight:bold;vertical-align:top;">secure</td><td style="vertical-align:top;">:</td><td><div></div></td></tr><tr><td style="font-weight:bold;vertical-align:top;">version</td><td style="vertical-align:top;">:</td><td><div></div></td></tr></table></div></td></tr><tr><td style="font-weight:bold;vertical-align:top;">session_id_bundjalung</td><td style="vertical-align:top;">:</td><td><div>5136:96586c82-5548-4c38-bfa3-241b9d2f2f9a<table><tr><td style="font-weight:bold;vertical-align:top;">comment</td><td style="vertical-align:top;">:</td><td><div></div></td></tr><tr><td style="font-weight:bold;vertical-align:top;">domain</td><td style="vertical-align:top;">:</td><td><div></div></td></tr><tr><td style="font-weight:bold;vertical-align:top;">expires</td><td style="vertical-align:top;">:</td><td><div></div></td></tr><tr><td style="font-weight:bold;vertical-align:top;">httponly</td><td style="vertical-align:top;">:</td><td><div></div></td></tr><tr><td style="font-weight:bold;vertical-align:top;">max-age</td><td style="vertical-align:top;">:</td><td><div></div></td></tr><tr><td style="font-weight:bold;vertical-align:top;">path</td><td style="vertical-align:top;">:</td><td><div></div></td></tr><tr><td style="font-weight:bold;vertical-align:top;">secure</td><td style="vertical-align:top;">:</td><td><div></div></td></tr><tr><td style="font-weight:bold;vertical-align:top;">version</td><td style="vertical-align:top;">:</td><td><div></div></td></tr></table></div></td></tr><tr><td style="font-weight:bold;vertical-align:top;">session_id_welcome</td><td style="vertical-align:top;">:</td><td><div>127.0.0.1-4eef5fb7-99c4-4c1c-b81f-69eec08a2f01<table><tr><td style="font-weight:bold;vertical-align:top;">comment</td><td style="vertical-align:top;">:</td><td><div></div></td></tr><tr><td style="font-weight:bold;vertical-align:top;">domain</td><td style="vertical-align:top;">:</td><td><div></div></td></tr><tr><td style="font-weight:bold;vertical-align:top;">expires</td><td style="vertical-align:top;">:</td><td><div></div></td></tr><tr><td style="font-weight:bold;vertical-align:top;">httponly</td><td style="vertical-align:top;">:</td><td><div></div></td></tr><tr><td style="font-weight:bold;vertical-align:top;">max-age</td><td style="vertical-align:top;">:</td><td><div></div></td></tr><tr><td style="font-weight:bold;vertical-align:top;">path</td><td style="vertical-align:top;">:</td><td><div></div></td></tr><tr><td style="font-weight:bold;vertical-align:top;">secure</td><td style="vertical-align:top;">:</td><td><div></div></td></tr><tr><td style="font-weight:bold;vertical-align:top;">version</td><td style="vertical-align:top;">:</td><td><div></div></td></tr></table></div></td></tr></table></div></td></tr><tr><td style="font-weight:bold;vertical-align:top;">env</td><td style="vertical-align:top;">:</td><td><div><table><tr><td style="font-weight:bold;vertical-align:top;">HTTP_ACCEPT</td><td style="vertical-align:top;">:</td><td><div>text/html,application/xhtml+xml,application/xml;q=0.9,image/webp,*/*;q=0.8</div></td></tr><tr><td style="font-weight:bold;vertical-align:top;">HTTP_ACCEPT_ENCODING</td><td style="vertical-align:top;">:</td><td><div>gzip, deflate, sdch</div></td></tr><tr><td style="font-weight:bold;vertical-align:top;">HTTP_ACCEPT_LANGUAGE</td><td style="vertical-align:top;">:</td><td><div>en-US,en;q=0.8</div></td></tr><tr><td style="font-weight:bold;vertical-align:top;">HTTP_CONNECTION</td><td style="vertical-align:top;">:</td><td><div>keep-alive</div></td></tr><tr><td style="font-weight:bold;vertical-align:top;">HTTP_COOKIE</td><td style="vertical-align:top;">:</td><td><div>session_id_admin=127.0.0.1-53f623db-40ba-4a9e-8123-1bfe3a449aa4; session_id_welcome=127.0.0.1-4eef5fb7-99c4-4c1c-b81f-69eec08a2f01; session_id_bundjalung=&quot;5136:96586c82-5548-4c38-bfa3-241b9d2f2f9a&quot;</div></td></tr><tr><td style="font-weight:bold;vertical-align:top;">HTTP_HOST</td><td style="vertical-align:top;">:</td><td><div>localhost:8100</div></td></tr><tr><td style="font-weight:bold;vertical-align:top;">HTTP_USER_AGENT</td><td style="vertical-align:top;">:</td><td><div>Mozilla/5.0 (Macintosh; Intel Mac OS X 10_10_0) AppleWebKit/537.36 (KHTML, like Gecko) Chrome/40.0.2214.94 Safari/537.36</div></td></tr><tr><td style="font-weight:bold;vertical-align:top;">PATH_INFO</td><td style="vertical-align:top;">:</td><td><div>/Bundjalung/plugin_wiki/edit_page/Sounds</div></td></tr><tr><td style="font-weight:bold;vertical-align:top;">QUERY_STRING</td><td style="vertical-align:top;">:</td><td><div></div></td></tr><tr><td style="font-weight:bold;vertical-align:top;">REMOTE_ADDR</td><td style="vertical-align:top;">:</td><td><div>127.0.0.1</div></td></tr><tr><td style="font-weight:bold;vertical-align:top;">REMOTE_PORT</td><td style="vertical-align:top;">:</td><td><div>34964</div></td></tr><tr><td style="font-weight:bold;vertical-align:top;">REQUEST_METHOD</td><td style="vertical-align:top;">:</td><td><div>GET</div></td></tr><tr><td style="font-weight:bold;vertical-align:top;">SCRIPT_NAME</td><td style="vertical-align:top;">:</td><td><div></div></td></tr><tr><td style="font-weight:bold;vertical-align:top;">SERVER_NAME</td><td style="vertical-align:top;">:</td><td><div>djurumin.cities.org.au</div></td></tr><tr><td style="font-weight:bold;vertical-align:top;">SERVER_PORT</td><td style="vertical-align:top;">:</td><td><div>8100</div></td></tr><tr><td style="font-weight:bold;vertical-align:top;">SERVER_PROTOCOL</td><td style="vertical-align:top;">:</td><td><div>HTTP/1.1</div></td></tr><tr><td style="font-weight:bold;vertical-align:top;">SERVER_SOFTWARE</td><td style="vertical-align:top;">:</td><td><div>Rocket 1.2.6</div></td></tr><tr><td style="font-weight:bold;vertical-align:top;">app_folders</td><td style="vertical-align:top;">:</td><td><div>set([&#x27;/usr/local/web2py/applications/welcome/&#x27;, &#x27;/usr/local/web2py/applications/Bundjalung/&#x27;, &#x27;/usr/local/web2py/applications/admin/&#x27;])</div></td></tr><tr><td style="font-weight:bold;vertical-align:top;">applications_parent</td><td style="vertical-align:top;">:</td><td><div>/usr/local/web2py</div></td></tr><tr><td style="font-weight:bold;vertical-align:top;">cmd_args</td><td style="vertical-align:top;">:</td><td><div><table></table></div></td></tr><tr><td style="font-weight:bold;vertical-align:top;">cmd_options</td><td style="vertical-align:top;">:</td><td><div>&lt;Values at 0x169ba28: {&#x27;verbose&#x27;: False, &#x27;ip&#x27;: &#x27;localhost&#x27;, &#x27;debuglevel&#x27;: 30, &#x27;with_scheduler&#x27;: False, &#x27;ips&#x27;: [&#x27;129.94.172.253&#x27;], &#x27;shutdown_timeout&#x27;: 5, &#x27;taskbar&#x27;: False, &#x27;with_coverage&#x27;: False, &#x27;scheduler_groups&#x27;: None, &#x27;port&#x27;: 8100, &#x27;maxthreads&#x27;: None, &#x27;softcron&#x27;: False, &#x27;server_name&#x27;: &#x27;djurumin.cities.org.au&#x27;, &#x27;bpython&#x27;: False, &#x27;nogui&#x27;: False, &#x27;pid_filename&#x27;: &#x27;httpserver.pid&#x27;, &#x27;extcron&#x27;: False, &#x27;runcron&#x27;: False, &#x27;run_system_tests&#x27;: False, &#x27;test&#x27;: None, &#x27;folder&#x27;: &#x27;/usr/local/web2py&#x27;, &#x27;config&#x27;: &#x27;&#x27;, &#x27;minthreads&#x27;: None, &#x27;shell&#x27;: None, &#x27;run&#x27;: &#x27;&#x27;, &#x27;log_filename&#x27;: &#x27;httpserver.log&#x27;, &#x27;profiler_dir&#x27;: None, &#x27;args&#x27;: [&#x27;&#x27;], &#x27;socket_timeout&#x27;: 5, &#x27;ssl_ca_certificate&#x27;: None, &#x27;scheduler&#x27;: None, &#x27;interfaces&#x27;: None, &#x27;ssl_private_key&#x27;: &#x27;&#x27;, &#x27;gae&#x27;: None, &#x27;password&#x27;: &#x27;AK131391&#x27;, &#x27;request_queue_size&#x27;: 5, &#x27;ssl_certificate&#x27;: &#x27;&#x27;, &#x27;cronjob&#x27;: False, &#x27;numthreads&#x27;: None, &#x27;quiet&#x27;: False, &#x27;import_models&#x27;: False, &#x27;timeout&#x27;: 10, &#x27;plain&#x27;: False, &#x27;nobanner&#x27;: False}&gt;</div></td></tr><tr><td style="font-weight:bold;vertical-align:top;">db_sessions</td><td style="vertical-align:top;">:</td><td><div>set([&#x27;Bundjalung&#x27;])</div></td></tr><tr><td style="font-weight:bold;vertical-align:top;">debugging</td><td style="vertical-align:top;">:</td><td><div>False</div></td></tr><tr><td style="font-weight:bold;vertical-align:top;">gluon_parent</td><td style="vertical-align:top;">:</td><td><div>/usr/local/web2py</div></td></tr><tr><td style="font-weight:bold;vertical-align:top;">http_accept</td><td style="vertical-align:top;">:</td><td><div>text/html,application/xhtml+xml,application/xml;q=0.9,image/webp,*/*;q=0.8</div></td></tr><tr><td style="font-weight:bold;vertical-align:top;">http_accept_encoding</td><td style="vertical-align:top;">:</td><td><div>gzip, deflate, sdch</div></td></tr><tr><td style="font-weight:bold;vertical-align:top;">http_accept_language</td><td style="vertical-align:top;">:</td><td><div>en-US,en;q=0.8</div></td></tr><tr><td style="font-weight:bold;vertical-align:top;">http_connection</td><td style="vertical-align:top;">:</td><td><div>keep-alive</div></td></tr><tr><td style="font-weight:bold;vertical-align:top;">http_cookie</td><td style="vertical-align:top;">:</td><td><div>session_id_admin=127.0.0.1-53f623db-40ba-4a9e-8123-1bfe3a449aa4; session_id_welcome=127.0.0.1-4eef5fb7-99c4-4c1c-b81f-69eec08a2f01; session_id_bundjalung=&quot;5136:96586c82-5548-4c38-bfa3-241b9d2f2f9a&quot;</div></td></tr><tr><td style="font-weight:bold;vertical-align:top;">http_host</td><td style="vertical-align:top;">:</td><td><div>localhost:8100</div></td></tr><tr><td style="font-weight:bold;vertical-align:top;">http_user_agent</td><td style="vertical-align:top;">:</td><td><div>Mozilla/5.0 (Macintosh; Intel Mac OS X 10_10_0) AppleWebKit/537.36 (KHTML, like Gecko) Chrome/40.0.2214.94 Safari/537.36</div></td></tr><tr><td style="font-weight:bold;vertical-align:top;">is_jython</td><td style="vertical-align:top;">:</td><td><div>False</div></td></tr><tr><td style="font-weight:bold;vertical-align:top;">is_pypy</td><td style="vertical-align:top;">:</td><td><div>False</div></td></tr><tr><td style="font-weight:bold;vertical-align:top;">is_source</td><td style="vertical-align:top;">:</td><td><div>True</div></td></tr><tr><td style="font-weight:bold;vertical-align:top;">local_hosts</td><td style="vertical-align:top;">:</td><td><div><table><tr><td><div>129.94.172.253</div></td></tr><tr><td><div>djurumin.cse.unsw.EDU.AU</div></td></tr><tr><td><div>::ffff:127.0.0.1</div></td></tr><tr><td><div>::1</div></td></tr><tr><td><div>djurumin.cities.org.au</div></td></tr><tr><td><div>127.0.0.1</div></td></tr></table></div></td></tr><tr><td style="font-weight:bold;vertical-align:top;">path_info</td><td style="vertical-align:top;">:</td><td><div>/Bundjalung/plugin_wiki/edit_page/Sounds</div></td></tr><tr><td style="font-weight:bold;vertical-align:top;">query_string</td><td style="vertical-align:top;">:</td><td><div></div></td></tr><tr><td style="font-weight:bold;vertical-align:top;">remote_addr</td><td style="vertical-align:top;">:</td><td><div>127.0.0.1</div></td></tr><tr><td style="font-weight:bold;vertical-align:top;">remote_port</td><td style="vertical-align:top;">:</td><td><div>34964</div></td></tr><tr><td style="font-weight:bold;vertical-align:top;">request_method</td><td style="vertical-align:top;">:</td><td><div>GET</div></td></tr><tr><td style="font-weight:bold;vertical-align:top;">request_uri</td><td style="vertical-align:top;">:</td><td><div>/Bundjalung/plugin_wiki/edit_page/Sounds</div></td></tr><tr><td style="font-weight:bold;vertical-align:top;">script_name</td><td style="vertical-align:top;">:</td><td><div></div></td></tr><tr><td style="font-weight:bold;vertical-align:top;">server_name</td><td style="vertical-align:top;">:</td><td><div>djurumin.cities.org.au</div></td></tr><tr><td style="font-weight:bold;vertical-align:top;">server_port</td><td style="vertical-align:top;">:</td><td><div>8100</div></td></tr><tr><td style="font-weight:bold;vertical-align:top;">server_protocol</td><td style="vertical-align:top;">:</td><td><div>HTTP/1.1</div></td></tr><tr><td style="font-weight:bold;vertical-align:top;">server_software</td><td style="vertical-align:top;">:</td><td><div>Rocket 1.2.6</div></td></tr><tr><td style="font-weight:bold;vertical-align:top;">web2py_original_uri</td><td style="vertical-align:top;">:</td><td><div>/Bundjalung/plugin_wiki/edit_page/Sounds</div></td></tr><tr><td style="font-weight:bold;vertical-align:top;">web2py_path</td><td style="vertical-align:top;">:</td><td><div>/usr/local/web2py</div></td></tr><tr><td style="font-weight:bold;vertical-align:top;">web2py_version</td><td style="vertical-align:top;">:</td><td><div>2.9.12-stable+timestamp.2015.01.17.06.11.03</div></td></tr><tr><td style="font-weight:bold;vertical-align:top;">wsgi.errors</td><td style="vertical-align:top;">:</td><td><div>&lt;open file &#x27;&lt;stderr&gt;&#x27;, mode &#x27;w&#x27; at 0x7f3b25e89270&gt;</div></td></tr><tr><td style="font-weight:bold;vertical-align:top;">wsgi.file_wrapper</td><td style="vertical-align:top;">:</td><td><div>&lt;class wsgiref.util.FileWrapper at 0x162dd50&gt;</div></td></tr><tr><td style="font-weight:bold;vertical-align:top;">wsgi.input</td><td style="vertical-align:top;">:</td><td><div>&lt;socket._fileobject object at 0x7f3b15106450&gt;</div></td></tr><tr><td style="font-weight:bold;vertical-align:top;">wsgi.multiprocess</td><td style="vertical-align:top;">:</td><td><div>False</div></td></tr><tr><td style="font-weight:bold;vertical-align:top;">wsgi.multithread</td><td style="vertical-align:top;">:</td><td><div>True</div></td></tr><tr><td style="font-weight:bold;vertical-align:top;">wsgi.run_once</td><td style="vertical-align:top;">:</td><td><div>False</div></td></tr><tr><td style="font-weight:bold;vertical-align:top;">wsgi.url_scheme</td><td style="vertical-align:top;">:</td><td><div>http</div></td></tr><tr><td style="font-weight:bold;vertical-align:top;">wsgi.version</td><td style="vertical-align:top;">:</td><td><div><table><tr><td><div>1</div></td></tr><tr><td><div>0</div></td></tr></table></div></td></tr><tr><td style="font-weight:bold;vertical-align:top;">wsgi_errors</td><td style="vertical-align:top;">:</td><td><div>&lt;open file &#x27;&lt;stderr&gt;&#x27;, mode &#x27;w&#x27; at 0x7f3b25e89270&gt;</div></td></tr><tr><td style="font-weight:bold;vertical-align:top;">wsgi_file_wrapper</td><td style="vertical-align:top;">:</td><td><div>&lt;class wsgiref.util.FileWrapper at 0x162dd50&gt;</div></td></tr><tr><td style="font-weight:bold;vertical-align:top;">wsgi_input</td><td style="vertical-align:top;">:</td><td><div>&lt;socket._fileobject object at 0x7f3b15106450&gt;</div></td></tr><tr><td style="font-weight:bold;vertical-align:top;">wsgi_multiprocess</td><td style="vertical-align:top;">:</td><td><div>False</div></td></tr><tr><td style="font-weight:bold;vertical-align:top;">wsgi_multithread</td><td style="vertical-align:top;">:</td><td><div>True</div></td></tr><tr><td style="font-weight:bold;vertical-align:top;">wsgi_run_once</td><td style="vertical-align:top;">:</td><td><div>False</div></td></tr><tr><td style="font-weight:bold;vertical-align:top;">wsgi_url_scheme</td><td style="vertical-align:top;">:</td><td><div>http</div></td></tr><tr><td style="font-weight:bold;vertical-align:top;">wsgi_version</td><td style="vertical-align:top;">:</td><td><div><table><tr><td><div>1</div></td></tr><tr><td><div>0</div></td></tr></table></div></td></tr></table></div></td></tr><tr><td style="font-weight:bold;vertical-align:top;">extension</td><td style="vertical-align:top;">:</td><td><div>html</div></td></tr><tr><td style="font-weight:bold;vertical-align:top;">folder</td><td style="vertical-align:top;">:</td><td><div>/usr/local/web2py/applications/Bundjalung/</div></td></tr><tr><td style="font-weight:bold;vertical-align:top;">function</td><td style="vertical-align:top;">:</td><td><div>edit_page</div></td></tr><tr><td style="font-weight:bold;vertical-align:top;">global_settings</td><td style="vertical-align:top;">:</td><td><div><table><tr><td style="font-weight:bold;vertical-align:top;">app_folders</td><td style="vertical-align:top;">:</td><td><div>set([&#x27;/usr/local/web2py/applications/welcome/&#x27;, &#x27;/usr/local/web2py/applications/Bundjalung/&#x27;, &#x27;/usr/local/web2py/applications/admin/&#x27;])</div></td></tr><tr><td style="font-weight:bold;vertical-align:top;">applications_parent</td><td style="vertical-align:top;">:</td><td><div>/usr/local/web2py</div></td></tr><tr><td style="font-weight:bold;vertical-align:top;">cmd_args</td><td style="vertical-align:top;">:</td><td><div><table></table></div></td></tr><tr><td style="font-weight:bold;vertical-align:top;">cmd_options</td><td style="vertical-align:top;">:</td><td><div>&lt;Values at 0x169ba28: {&#x27;verbose&#x27;: False, &#x27;ip&#x27;: &#x27;localhost&#x27;, &#x27;debuglevel&#x27;: 30, &#x27;with_scheduler&#x27;: False, &#x27;ips&#x27;: [&#x27;129.94.172.253&#x27;], &#x27;shutdown_timeout&#x27;: 5, &#x27;taskbar&#x27;: False, &#x27;with_coverage&#x27;: False, &#x27;scheduler_groups&#x27;: None, &#x27;port&#x27;: 8100, &#x27;maxthreads&#x27;: None, &#x27;softcron&#x27;: False, &#x27;server_name&#x27;: &#x27;djurumin.cities.org.au&#x27;, &#x27;bpython&#x27;: False, &#x27;nogui&#x27;: False, &#x27;pid_filename&#x27;: &#x27;httpserver.pid&#x27;, &#x27;extcron&#x27;: False, &#x27;runcron&#x27;: False, &#x27;run_system_tests&#x27;: False, &#x27;test&#x27;: None, &#x27;folder&#x27;: &#x27;/usr/local/web2py&#x27;, &#x27;config&#x27;: &#x27;&#x27;, &#x27;minthreads&#x27;: None, &#x27;shell&#x27;: None, &#x27;run&#x27;: &#x27;&#x27;, &#x27;log_filename&#x27;: &#x27;httpserver.log&#x27;, &#x27;profiler_dir&#x27;: None, &#x27;args&#x27;: [&#x27;&#x27;], &#x27;socket_timeout&#x27;: 5, &#x27;ssl_ca_certificate&#x27;: None, &#x27;scheduler&#x27;: None, &#x27;interfaces&#x27;: None, &#x27;ssl_private_key&#x27;: &#x27;&#x27;, &#x27;gae&#x27;: None, &#x27;password&#x27;: &#x27;AK131391&#x27;, &#x27;request_queue_size&#x27;: 5, &#x27;ssl_certificate&#x27;: &#x27;&#x27;, &#x27;cronjob&#x27;: False, &#x27;numthreads&#x27;: None, &#x27;quiet&#x27;: False, &#x27;import_models&#x27;: False, &#x27;timeout&#x27;: 10, &#x27;plain&#x27;: False, &#x27;nobanner&#x27;: False}&gt;</div></td></tr><tr><td style="font-weight:bold;vertical-align:top;">db_sessions</td><td style="vertical-align:top;">:</td><td><div>set([&#x27;Bundjalung&#x27;])</div></td></tr><tr><td style="font-weight:bold;vertical-align:top;">debugging</td><td style="vertical-align:top;">:</td><td><div>False</div></td></tr><tr><td style="font-weight:bold;vertical-align:top;">gluon_parent</td><td style="vertical-align:top;">:</td><td><div>/usr/local/web2py</div></td></tr><tr><td style="font-weight:bold;vertical-align:top;">is_jython</td><td style="vertical-align:top;">:</td><td><div>False</div></td></tr><tr><td style="font-weight:bold;vertical-align:top;">is_pypy</td><td style="vertical-align:top;">:</td><td><div>False</div></td></tr><tr><td style="font-weight:bold;vertical-align:top;">is_source</td><td style="vertical-align:top;">:</td><td><div>True</div></td></tr><tr><td style="font-weight:bold;vertical-align:top;">local_hosts</td><td style="vertical-align:top;">:</td><td><div><table><tr><td><div>129.94.172.253</div></td></tr><tr><td><div>djurumin.cse.unsw.EDU.AU</div></td></tr><tr><td><div>::ffff:127.0.0.1</div></td></tr><tr><td><div>::1</div></td></tr><tr><td><div>djurumin.cities.org.au</div></td></tr><tr><td><div>127.0.0.1</div></td></tr></table></div></td></tr><tr><td style="font-weight:bold;vertical-align:top;">web2py_version</td><td style="vertical-align:top;">:</td><td><div>2.9.12-stable+timestamp.2015.01.17.06.11.03</div></td></tr></table></div></td></tr><tr><td style="font-weight:bold;vertical-align:top;">is_https</td><td style="vertical-align:top;">:</td><td><div>False</div></td></tr><tr><td style="font-weight:bold;vertical-align:top;">is_local</td><td style="vertical-align:top;">:</td><td><div>True</div></td></tr><tr><td style="font-weight:bold;vertical-align:top;">is_restful</td><td style="vertical-align:top;">:</td><td><div>False</div></td></tr><tr><td style="font-weight:bold;vertical-align:top;">is_sheduler</td><td style="vertical-align:top;">:</td><td><div>None</div></td></tr><tr><td style="font-weight:bold;vertical-align:top;">is_shell</td><td style="vertical-align:top;">:</td><td><div>None</div></td></tr><tr><td style="font-weight:bold;vertical-align:top;">now</td><td style="vertical-align:top;">:</td><td><div>datetime.datetime(2015, 2, 5, 18, 21, 25, 365240)</div></td></tr><tr><td style="font-weight:bold;vertical-align:top;">url</td><td style="vertical-align:top;">:</td><td><div>/Bundjalung/plugin_wiki/edit_page/Sounds</div></td></tr><tr><td style="font-weight:bold;vertical-align:top;">utcnow</td><td style="vertical-align:top;">:</td><td><div>datetime.datetime(2015, 2, 5, 7, 21, 25, 365279)</div></td></tr><tr><td style="font-weight:bold;vertical-align:top;">uuid</td><td style="vertical-align:top;">:</td><td><div>Bundjalung/127.0.0.1.2015-02-05.18-21-25.2089734b-1e7a-41f1-b12b-cd069401de46</div></td></tr><tr><td style="font-weight:bold;vertical-align:top;">wsgi</td><td style="vertical-align:top;">:</td><td><div>&lt;gluon.main.LazyWSGI object at 0x7f3b0d7810d0&gt;</div></td></tr></table></div>'
tRp58
sS'frames'
p59
(lp60
(dp61
S'file'
p62
S'/usr/local/web2py/gluon/restricted.py'
p63
sS'dump'
p64
(dp65
S'environment'
p66
S"{'A': <class 'gluon.html.A'>, 'ANY_OF': <class 'gluon.validators.ANY_OF'>, 'ASSIGNJS': <function ASSIGNJS>, 'Auth': <class 'gluon.tools.Auth'>, 'B': <class 'gluon.html.B'>, 'BEAUTIFY': <class 'gluon.html.BEAUTIFY'>, 'BODY': <class 'gluon.html.BODY'>, 'BR': <class 'gluon.html.BR'>, 'BUTTON': <class 'gluon.html.BUTTON'>, 'CAT': <class 'gluon.html.CAT'>, ...}"
p67
sS'ccode'
p68
S'<code object <module> at 0x7f3af8f42ab0, file "/...ations/Bundjalung/models/plugin_wiki.py", line 7>'
p69
ssS'lnum'
p70
I224
sS'lines'
p71
(dp72
I224
S'        exec ccode in environment'
p73
sI225
S'    except HTTP:'
p74
sI226
S'        raise'
p75
sI227
S'    except RestrictedError:'
p76
sI228
S'        # do not encapsulate (obfuscate) the original RestrictedError'
p77
sI219
S'    try:'
p78
sI220
S'        if isinstance(code, types.CodeType):'
p79
sI221
S'            ccode = code'
p80
sI222
S'        else:'
p81
sI223
S'            ccode = compile2(code, layer)'
p82
ssS'call'
p83
S"(code='# This file was developed by Massimo Di Pierro\\n#...s,name)(*args,**kargs)\\n\\nplugin_wiki=PluginWiki()\\n', environment={'A': <class 'gluon.html.A'>, 'ANY_OF': <class 'gluon.validators.ANY_OF'>, 'ASSIGNJS': <function ASSIGNJS>, 'Auth': <class 'gluon.tools.Auth'>, 'B': <class 'gluon.html.B'>, 'BEAUTIFY': <class 'gluon.html.BEAUTIFY'>, 'BODY': <class 'gluon.html.BODY'>, 'BR': <class 'gluon.html.BR'>, 'BUTTON': <class 'gluon.html.BUTTON'>, 'CAT': <class 'gluon.html.CAT'>, ...}, layer='/usr/local/web2py/applications/Bundjalung/models/plugin_wiki.py')"
p84
sS'func'
p85
S'restricted'
p86
sa(dp87
g62
S'/usr/local/web2py/applications/Bundjalung/models/plugin_wiki.py'
p88
sg64
(dp89
S'default'
p90
S'1L'
p91
sS'Field'
p92
S"<class 'gluon.dal.objects.Field'>"
p93
sS'length'
p94
S'undefined'
p95
sS'string'
p96
g95
ssg70
I121
sg71
(dp97
I116
S"                Field('slug',"
p98
sI117
S'                      requires=(IS_SLUG())),'
p99
sI118
S"                Field('title',default='',"
p100
sI119
S"                      requires=(IS_NOT_EMPTY(),IS_NOT_IN_DB(db,'plugin_wiki_page.title'))),"
p101
sI120
S"                Field('is_public','boolean',default=True),"
p102
sI121
S"                Field('worksheet',string, length=1,default='F'),"
p103
sI122
S'                Field(\'summary\',length=500, default=""),'
p104
sI123
S"\t\tField('body','text',default=''),"
p105
sI124
S"                Field('role',db.auth_group,"
p106
sI125
S"                      requires=IS_EMPTY_OR(IS_IN_DB(db,'auth_group.id','%(role)s'))),"
p107
ssg83
S'()'
p108
sg85
S'<module>'
p109
sasS'pyver'
p110
S'Python 2.7.3: /bin/python (prefix: /usr)'
p111
sS'session'
p112
g57
(S's\x02\n\x00\x00<div><table><tr><td style="font-weight:bold;vertical-align:top;">auth</td><td style="vertical-align:top;">:</td><td><div><table><tr><td style="font-weight:bold;vertical-align:top;">expiration</td><td style="vertical-align:top;">:</td><td><div>2592000</div></td></tr><tr><td style="font-weight:bold;vertical-align:top;">hmac_key</td><td style="vertical-align:top;">:</td><td><div>7a867b86-4fa0-425e-b42e-ba4d8335c0a4</div></td></tr><tr><td style="font-weight:bold;vertical-align:top;">last_visit</td><td style="vertical-align:top;">:</td><td><div>datetime.datetime(2015, 2, 5, 17, 10, 37, 840310)</div></td></tr><tr><td style="font-weight:bold;vertical-align:top;">remember_me</td><td style="vertical-align:top;">:</td><td><div>True</div></td></tr><tr><td style="font-weight:bold;vertical-align:top;">user</td><td style="vertical-align:top;">:</td><td><div><table><tr><td style="font-weight:bold;vertical-align:top;">Role_Name</td><td style="vertical-align:top;">:</td><td><div>teacher</div></td></tr><tr><td style="font-weight:bold;vertical-align:top;">email</td><td style="vertical-align:top;">:</td><td><div>ckutay@cities.org.au</div></td></tr><tr><td style="font-weight:bold;vertical-align:top;">first_name</td><td style="vertical-align:top;">:</td><td><div>Cat</div></td></tr><tr><td style="font-weight:bold;vertical-align:top;">id</td><td style="vertical-align:top;">:</td><td><div>1L</div></td></tr><tr><td style="font-weight:bold;vertical-align:top;">last_name</td><td style="vertical-align:top;">:</td><td><div>Kutay</div></td></tr><tr><td style="font-weight:bold;vertical-align:top;">registration_id</td><td style="vertical-align:top;">:</td><td><div>0L</div></td></tr><tr><td style="font-weight:bold;vertical-align:top;">registration_key</td><td style="vertical-align:top;">:</td><td><div></div></td></tr><tr><td style="font-weight:bold;vertical-align:top;">reset_password_key</td><td style="vertical-align:top;">:</td><td><div></div></td></tr><tr><td style="font-weight:bold;vertical-align:top;">username</td><td style="vertical-align:top;">:</td><td><div>cat.kutay</div></td></tr></table></div></td></tr><tr><td style="font-weight:bold;vertical-align:top;">user_groups</td><td style="vertical-align:top;">:</td><td><div><table><tr><td style="font-weight:bold;vertical-align:top;">1</td><td style="vertical-align:top;">:</td><td><div>developer</div></td></tr></table></div></td></tr></table></div></td></tr><tr><td style="font-weight:bold;vertical-align:top;">flash</td><td style="vertical-align:top;">:</td><td><div>None</div></td></tr></table></div>'
tRp113
sS'etype'
p114
S"<type 'exceptions.NameError'>"
p115
sS'date'
p116
S'Thu Feb  5 18:22:43 2015'
p117
sS'response'
p118
g57
(S's\x1f1\x00\x00<div><table><tr><td style="font-weight:bold;vertical-align:top;">body</td><td style="vertical-align:top;">:</td><td><div>&lt;cStringIO.StringO object at 0x7f3b108797d8&gt;</div></td></tr><tr><td style="font-weight:bold;vertical-align:top;">cookies</td><td style="vertical-align:top;">:</td><td><div><table><tr><td style="font-weight:bold;vertical-align:top;">session_id_bundjalung</td><td style="vertical-align:top;">:</td><td><div>5136:96586c82-5548-4c38-bfa3-241b9d2f2f9a<table><tr><td style="font-weight:bold;vertical-align:top;">comment</td><td style="vertical-align:top;">:</td><td><div></div></td></tr><tr><td style="font-weight:bold;vertical-align:top;">domain</td><td style="vertical-align:top;">:</td><td><div></div></td></tr><tr><td style="font-weight:bold;vertical-align:top;">expires</td><td style="vertical-align:top;">:</td><td><div></div></td></tr><tr><td style="font-weight:bold;vertical-align:top;">httponly</td><td style="vertical-align:top;">:</td><td><div></div></td></tr><tr><td style="font-weight:bold;vertical-align:top;">max-age</td><td style="vertical-align:top;">:</td><td><div></div></td></tr><tr><td style="font-weight:bold;vertical-align:top;">path</td><td style="vertical-align:top;">:</td><td><div>/</div></td></tr><tr><td style="font-weight:bold;vertical-align:top;">secure</td><td style="vertical-align:top;">:</td><td><div></div></td></tr><tr><td style="font-weight:bold;vertical-align:top;">version</td><td style="vertical-align:top;">:</td><td><div></div></td></tr></table></div></td></tr></table></div></td></tr><tr><td style="font-weight:bold;vertical-align:top;">delimiters</td><td style="vertical-align:top;">:</td><td><div><table><tr><td><div>{{</div></td></tr><tr><td><div>}}</div></td></tr></table></div></td></tr><tr><td style="font-weight:bold;vertical-align:top;">files</td><td style="vertical-align:top;">:</td><td><div><table><tr><td><div>/Bundjalung/static/plugin_multiselect/jquery.dimensions.js</div></td></tr><tr><td><div>/Bundjalung/static/plugin_multiselect/jquery.multiselect.js</div></td></tr><tr><td><div>/Bundjalung/static/plugin_multiselect/jquery.multiselect.css</div></td></tr></table></div></td></tr><tr><td style="font-weight:bold;vertical-align:top;">flash</td><td style="vertical-align:top;">:</td><td><div></div></td></tr><tr><td style="font-weight:bold;vertical-align:top;">form_label_separator</td><td style="vertical-align:top;">:</td><td><div>: </div></td></tr><tr><td style="font-weight:bold;vertical-align:top;">formstyle</td><td style="vertical-align:top;">:</td><td><div>table3cols</div></td></tr><tr><td style="font-weight:bold;vertical-align:top;">generic_patterns</td><td style="vertical-align:top;">:</td><td><div><table><tr><td><div>*</div></td></tr></table></div></td></tr><tr><td style="font-weight:bold;vertical-align:top;">headers</td><td style="vertical-align:top;">:</td><td><div><table><tr><td style="font-weight:bold;vertical-align:top;">X-Powered-By</td><td style="vertical-align:top;">:</td><td><div>web2py</div></td></tr></table></div></td></tr><tr><td style="font-weight:bold;vertical-align:top;">menu</td><td style="vertical-align:top;">:</td><td><div><table></table></div></td></tr><tr><td style="font-weight:bold;vertical-align:top;">menuAbout</td><td style="vertical-align:top;">:</td><td><div><table><tr><td><div><table><tr><td><div>People</div></td></tr><tr><td><div>False</div></td></tr><tr><td><div>/Bundjalung/plugin_wiki/page/people</div></td></tr></table></div></td></tr><tr><td><div><table><tr><td><div>Traditional country</div></td></tr><tr><td><div>False</div></td></tr><tr><td><div>/Bundjalung/plugin_wiki/page/traditional_country</div></td></tr></table></div></td></tr><tr><td><div><table><tr><td><div>Language background</div></td></tr><tr><td><div>False</div></td></tr><tr><td><div>/Bundjalung/plugin_wiki/page/language_background</div></td></tr></table></div></td></tr><tr><td><div><table><tr><td><div>Outline of the language</div></td></tr><tr><td><div>False</div></td></tr><tr><td><div>/Bundjalung/plugin_wiki/page/outline_of_the_language</div></td></tr></table></div></td></tr><tr><td><div><table><tr><td><div>Outline of resources</div></td></tr><tr><td><div>False</div></td></tr><tr><td><div>/Bundjalung/plugin_wiki/page/outline_of_resources</div></td></tr></table></div></td></tr><tr><td><div><table><tr><td><div>History of the project</div></td></tr><tr><td><div>False</div></td></tr><tr><td><div>/Bundjalung/plugin_wiki/page/history</div></td></tr></table></div></td></tr></table></div></td></tr><tr><td style="font-weight:bold;vertical-align:top;">menuLogin</td><td style="vertical-align:top;">:</td><td><div><table><tr><td><div><table><tr><td><div>Logout</div></td></tr><tr><td><div>False</div></td></tr><tr><td><div>/Bundjalung/user/logout</div></td></tr></table></div></td></tr></table></div></td></tr><tr><td style="font-weight:bold;vertical-align:top;">menuResource</td><td style="vertical-align:top;">:</td><td><div><table><tr><td><div><table><tr><td><div>Dictionary Book</div></td></tr><tr><td><div>False</div></td></tr><tr><td><div>/Bundjalung/plugin_wiki/page/dictionary</div></td></tr></table></div></td></tr><tr><td><div><table><tr><td><div>Language Resources</div></td></tr><tr><td><div>False</div></td></tr><tr><td><div>/Bundjalung/plugin_wiki/resources</div></td></tr></table></div></td></tr><tr><td><div><table><tr><td><div>Written examples</div></td></tr><tr><td><div>False</div></td></tr><tr><td><div>/Bundjalung/plugin_wiki/page/written_examples_of_the_language</div></td></tr></table></div></td></tr><tr><td><div><table><tr><td><div>WorkSheets</div></td></tr><tr><td><div>False</div></td></tr><tr><td><div>/Bundjalung/learning/pages</div></td></tr></table></div></td></tr></table></div></td></tr><tr><td style="font-weight:bold;vertical-align:top;">menuTop</td><td style="vertical-align:top;">:</td><td><div><table><tr><td><div><table><tr><td><div>Home</div></td></tr><tr><td><div>False</div></td></tr><tr><td><div>/Bundjalung/plugin_wiki/index.html</div></td></tr></table></div></td></tr><tr><td><div><table><tr><td><div>About Us</div></td></tr><tr><td><div>False</div></td></tr><tr><td><div>/Bundjalung/plugin_wiki/page/about_us</div></td></tr></table></div></td></tr><tr><td><div><table><tr><td><div>Dictionary</div></td></tr><tr><td><div>False</div></td></tr><tr><td><div>/Bundjalung/language/dictionary</div></td></tr></table></div></td></tr><tr><td><div><table><tr><td><div>Resources</div></td></tr><tr><td><div>False</div></td></tr><tr><td><div>/Bundjalung/plugin_wiki/resources</div></td></tr></table></div></td></tr><tr><td><div><table><tr><td><div>Accept Regos</div></td></tr><tr><td><div>False</div></td></tr><tr><td><div>/Bundjalung/appadmin/update/db.auth_user/registration_key/pending</div></td></tr></table></div></td></tr><tr><td><div><table><tr><td><div>Change Password</div></td></tr><tr><td><div>False</div></td></tr><tr><td><div>/Bundjalung/user/change_password</div></td></tr></table></div></td></tr><tr><td><div><table><tr><td><div>Contact</div></td></tr><tr><td><div>False</div></td></tr><tr><td><div>/Bundjalung/plugin_wiki/contact</div></td></tr></table></div></td></tr></table></div></td></tr><tr><td style="font-weight:bold;vertical-align:top;">menu_edit</td><td style="vertical-align:top;">:</td><td><div><table><tr><td><div><table><tr><td><div>Edit</div></td></tr><tr><td><div>False</div></td></tr><tr><td><div>/admin/design/Bundjalung</div></td></tr><tr><td><div><table><tr><td><div><table><tr><td><div>Controller</div></td></tr><tr><td><div>False</div></td></tr><tr><td><div>/admin/edit/Bundjalung/controllers/default.py</div></td></tr></table></div></td></tr><tr><td><div><table><tr><td><div>View</div></td></tr><tr><td><div>False</div></td></tr><tr><td><div>/admin/edit/Bundjalung/views/plugin_wiki/edit_page.html</div></td></tr></table></div></td></tr><tr><td><div><table><tr><td><div>Layout</div></td></tr><tr><td><div>False</div></td></tr><tr><td><div>/admin/edit/Bundjalung/views/layout.html</div></td></tr></table></div></td></tr><tr><td><div><table><tr><td><div>Stylesheet</div></td></tr><tr><td><div>False</div></td></tr><tr><td><div>/admin/edit/Bundjalung/static/base.css</div></td></tr></table></div></td></tr><tr><td><div><table><tr><td><div>DB Model</div></td></tr><tr><td><div>False</div></td></tr><tr><td><div>/admin/edit/Bundjalung/models/db.py</div></td></tr></table></div></td></tr><tr><td><div><table><tr><td><div>Menu Model</div></td></tr><tr><td><div>False</div></td></tr><tr><td><div>/admin/edit/Bundjalung/models/menu.py</div></td></tr></table></div></td></tr><tr><td><div><table><tr><td><div>Database</div></td></tr><tr><td><div>False</div></td></tr><tr><td><div>/Bundjalung/appadmin</div></td></tr></table></div></td></tr></table></div></td></tr></table></div></td></tr></table></div></td></tr><tr><td style="font-weight:bold;vertical-align:top;">menu_spread</td><td style="vertical-align:top;">:</td><td><div><table><tr><td><div><table><tr><td><div>Index</div></td></tr><tr><td><div>False</div></td></tr><tr><td><div>/Bundjalung/plugin_spreadsheet</div></td></tr><tr><td><div><table></table></div></td></tr></table></div></td></tr></table></div></td></tr><tr><td style="font-weight:bold;vertical-align:top;">meta</td><td style="vertical-align:top;">:</td><td><div><table></table></div></td></tr><tr><td style="font-weight:bold;vertical-align:top;">models_to_run</td><td style="vertical-align:top;">:</td><td><div><table><tr><td><div>^\\w+\\.py$</div></td></tr><tr><td><div>^plugin_wiki/\\w+\\.py$</div></td></tr><tr><td><div>^plugin_wiki/edit_page/\\w+\\.py$</div></td></tr></table></div></td></tr><tr><td style="font-weight:bold;vertical-align:top;">postprocessing</td><td style="vertical-align:top;">:</td><td><div><table></table></div></td></tr><tr><td style="font-weight:bold;vertical-align:top;">session_client</td><td style="vertical-align:top;">:</td><td><div>127.0.0.1</div></td></tr><tr><td style="font-weight:bold;vertical-align:top;">session_cookie_compression_level</td><td style="vertical-align:top;">:</td><td><div>None</div></td></tr><tr><td style="font-weight:bold;vertical-align:top;">session_cookie_expires</td><td style="vertical-align:top;">:</td><td><div>2592000</div></td></tr><tr><td style="font-weight:bold;vertical-align:top;">session_cookie_key</td><td style="vertical-align:top;">:</td><td><div>None</div></td></tr><tr><td style="font-weight:bold;vertical-align:top;">session_data_name</td><td style="vertical-align:top;">:</td><td><div>session_data_bundjalung</div></td></tr><tr><td style="font-weight:bold;vertical-align:top;">session_db_record_id</td><td style="vertical-align:top;">:</td><td><div>5136L</div></td></tr><tr><td style="font-weight:bold;vertical-align:top;">session_db_table</td><td style="vertical-align:top;">:</td><td><div>&lt;Table web2py_session_Bundjalung (id,locked,client_ip,created_datetime,modified_datetime,unique_key,session_data)&gt;</div></td></tr><tr><td style="font-weight:bold;vertical-align:top;">session_db_unique_key</td><td style="vertical-align:top;">:</td><td><div>96586c82-5548-4c38-bfa3-241b9d2f2f9a</div></td></tr><tr><td style="font-weight:bold;vertical-align:top;">session_hash</td><td style="vertical-align:top;">:</td><td><div>b336063495d2682cc79b67cc685334e9</div></td></tr><tr><td style="font-weight:bold;vertical-align:top;">session_id</td><td style="vertical-align:top;">:</td><td><div>5136:96586c82-5548-4c38-bfa3-241b9d2f2f9a</div></td></tr><tr><td style="font-weight:bold;vertical-align:top;">session_id_name</td><td style="vertical-align:top;">:</td><td><div>session_id_bundjalung</div></td></tr><tr><td style="font-weight:bold;vertical-align:top;">session_masterapp</td><td style="vertical-align:top;">:</td><td><div>Bundjalung</div></td></tr><tr><td style="font-weight:bold;vertical-align:top;">session_new</td><td style="vertical-align:top;">:</td><td><div>False</div></td></tr><tr><td style="font-weight:bold;vertical-align:top;">session_storage_type</td><td style="vertical-align:top;">:</td><td><div>db</div></td></tr><tr><td style="font-weight:bold;vertical-align:top;">start</td><td style="vertical-align:top;">:</td><td><div>True</div></td></tr><tr><td style="font-weight:bold;vertical-align:top;">status</td><td style="vertical-align:top;">:</td><td><div>200</div></td></tr><tr><td style="font-weight:bold;vertical-align:top;">title</td><td style="vertical-align:top;">:</td><td><div>Bundjalung-Yugambeh Dictionary</div></td></tr><tr><td style="font-weight:bold;vertical-align:top;">view</td><td style="vertical-align:top;">:</td><td><div>plugin_wiki/edit_page.html</div></td></tr></table></div>'
tRp119
sS'locals'
p120
(dp121
S'Service'
p122
S"<class 'gluon.tools.Service'>"
p123
sS'plugin_gmaps'
p124
S"<Storage {'color': <function <lambda> at 0x7f3b0...address': <function <lambda> at 0x7f3b0563f578>}>"
p125
sS'OBJECT'
p126
S"<class 'gluon.html.OBJECT'>"
p127
sS'track_changes'
p128
S'<function track_changes>'
p129
sS'SQLDB'
p130
S"<class 'gluon.dal.base.DAL'>"
p131
sg112
S"<Storage {'_auth_next': None, 'flash': None, '_f...779a220d:9a5c54e6-7457-4533-aa02-1b28424b292a']}>"
p132
sS'reverse_geocode'
p133
S'<function reverse_geocode>'
p134
sS'BR'
p135
S"<class 'gluon.html.BR'>"
p136
sS'local_import'
p137
S'<function <lambda>>'
p138
sS'OPTGROUP'
p139
S"<class 'gluon.html.OPTGROUP'>"
p140
sS'LI'
p141
S"<class 'gluon.html.LI'>"
p142
sS'redirect'
p143
S'<function redirect>'
p144
sS'IS_INT_IN_RANGE'
p145
S"<class 'gluon.validators.IS_INT_IN_RANGE'>"
p146
sS'uuid'
p147
S"<module 'uuid' from '/usr/lib64/python2.7/uuid.pyc'>"
p148
sS'IS_LOWER'
p149
S"<class 'gluon.validators.IS_LOWER'>"
p150
sS'IS_STRONG'
p151
S"<class 'gluon.validators.IS_STRONG'>"
p152
sS'SlugValidator'
p153
S"<class '__restricted__.SlugValidator'>"
p154
sS'Recaptcha'
p155
S"<class 'gluon.tools.Recaptcha'>"
p156
sS'pprint'
p157
S"<module 'pprint' from '/usr/lib64/python2.7/pprint.pyc'>"
p158
sS'IS_EQUAL_TO'
p159
S"<class 'gluon.validators.IS_EQUAL_TO'>"
p160
sS'IS_IN_DB'
p161
S"<class 'gluon.validators.IS_IN_DB'>"
p162
sS'TAG'
p163
S'<gluon.html.__TAG__ object>'
p164
sS'SQLField'
p165
S"<class 'gluon.dal.objects.Field'>"
p166
sS'_f'
p167
S"'plugin_wiki/kendo/js/kendo.all.min.js'"
p168
sS'logger'
p169
S'<logging.Logger object>'
p170
sS'RECAPTCHA_PRIVATE_KEY'
p171
S"'6LefJwQAAAAAAPcK2G6SO_pyJDegHi58J41bEVrV'"
p172
sS'BODY'
p173
S"<class 'gluon.html.BODY'>"
p174
sS'IS_DATE_IN_RANGE'
p175
S"<class 'gluon.validators.IS_DATE_IN_RANGE'>"
p176
sS'TH'
p177
S"<class 'gluon.html.TH'>"
p178
sS'get'
p179
S'<function get>'
p180
sS'URL'
p181
S'<function URL>'
p182
sS'__file__'
p183
S"'/usr/local/web2py/applications/Bundjalung/models/plugin_wiki.py'"
p184
sS'IS_FLOAT_IN_RANGE'
p185
S"<class 'gluon.validators.IS_FLOAT_IN_RANGE'>"
p186
sS'db'
p187
S'<DAL uri="mysql:******@localhost/Bundjalung">'
p188
sS'auth'
p189
S'<gluon.tools.Auth object>'
p190
sS'P'
S"<class 'gluon.html.P'>"
p191
sS'T'
S'<gluon.languages.translator object>'
p192
sS'plugin_wiki_theme'
p193
S"'cupertino'"
p194
sS'XHTML'
p195
S"<class 'gluon.html.XHTML'>"
p196
sS'now'
p197
S'datetime.datetime(2015, 2, 5, 18, 21, 25, 365240)'
p198
sS'RECAPTCHA_PUBLIC_KEY'
p199
S"'6LefJwQAAAAAAEuj02bmS2LgiZiPhGBqKP1kbn26'"
p200
sS'ON'
p201
S'True'
p202
sS'OL'
p203
S"<class 'gluon.html.OL'>"
p204
sS'TEXTAREA'
p205
S"<class 'gluon.html.TEXTAREA'>"
p206
sS'MENU'
p207
S"<class 'gluon.html.MENU'>"
p208
sS'IS_IPADDRESS'
p209
S"<class 'gluon.validators.IS_IPADDRESS'>"
p210
sS'plugin_wiki_widgets'
p211
S"'all'"
p212
sS'IS_IMAGE'
p213
S"<class 'gluon.validators.IS_IMAGE'>"
p214
sS'LINK'
p215
S"<class 'gluon.html.LINK'>"
p216
sS'EM'
p217
S"<class 'gluon.html.EM'>"
p218
sS'CODE'
p219
S"<class 'gluon.html.CODE'>"
p220
sS'HTTP'
p221
S"<class 'gluon.http.HTTP'>"
p222
sS'HR'
p223
S"<class 'gluon.html.HR'>"
p224
sS'IS_DATETIME'
p225
S"<class 'gluon.validators.IS_DATETIME'>"
p226
sS'Storage'
p227
S"<class 'gluon.storage.Storage'>"
p228
sS'HEAD'
p229
S"<class 'gluon.html.HEAD'>"
p230
sS'LABEL'
p231
S"<class 'gluon.html.LABEL'>"
p232
sS'CLEANUP'
p233
S"<class 'gluon.validators.CLEANUP'>"
p234
sS'plugins'
p235
S'<gluon.tools.PluginManager object>'
p236
sS'SELECT'
p237
S"<class 'gluon.html.SELECT'>"
p238
sS'represent_email'
p239
S'<function represent_email>'
p240
sS'CENTER'
p241
S"<class 'gluon.html.CENTER'>"
p242
sS'prettydate'
p243
S'<function prettydate>'
p244
sS'custom_auth_table'
p245
S'<Table auth_user (id,first_name,last_name,userna...ey,registration_id,reset_password_key,Role_Name)>'
p246
sS'Crud'
p247
S"<class 'gluon.tools.Crud'>"
p248
sS'Auth'
p249
S"<class 'gluon.tools.Auth'>"
p250
sS'current'
p251
S'<thread._local object>'
p252
sS're'
p253
S"<module 're' from '/usr/lib64/python2.7/re.pyc'>"
p254
sS'HTML'
p255
S"<class 'gluon.html.HTML'>"
p256
sS'SQLFORM'
p257
S"<class 'gluon.sqlhtml.SQLFORM'>"
p258
sS'EMAIL_SERVER'
p259
S"'cities.org.au:25'"
p260
sS'languageList'
p261
S'None'
p262
sS'LOAD'
p263
S'<function LOAD>'
p264
sS'PRE'
p265
S"<class 'gluon.html.PRE'>"
p266
sS'represent_author'
p267
S'<function represent_author>'
p268
sS'FIELDSET'
p269
S"<class 'gluon.html.FIELDSET'>"
p270
sS'goto'
p271
S'<function goto>'
p272
sS'__builtins__'
p273
S"{'ArithmeticError': <type 'exceptions.ArithmeticError'>, 'AssertionError': <type 'exceptions.AssertionError'>, 'AttributeError': <type 'exceptions.AttributeError'>, 'BaseException': <type 'exceptions.BaseException'>, 'BufferError': <type 'exceptions.BufferError'>, 'BytesWarning': <type 'exceptions.BytesWarning'>, 'DeprecationWarning': <type 'exceptions.DeprecationWarning'>, 'EOFError': <type 'exceptions.EOFError'>, 'Ellipsis': Ellipsis, 'EnvironmentError': <type 'exceptions.EnvironmentError'>, ...}"
p274
sS'embed64'
p275
S'<function embed64>'
p276
sS'Validator'
p277
S"<class 'gluon.validators.Validator'>"
p278
sS'IS_LIST_OF'
p279
S"<class 'gluon.validators.IS_LIST_OF'>"
p280
sS'INPUT'
p281
S"<class 'gluon.html.INPUT'>"
p282
sS'EMBED'
p283
S"<class 'gluon.html.EMBED'>"
p284
sS'slug'
p285
S'<function slug>'
p286
sS'_'
S'<function _>'
p287
sS'logging'
p288
S"<module 'logging' from '/usr/lib64/python2.7/logging/__init__.pyc'>"
p289
sS'language'
p290
S"'Bundjalung'"
p291
sS'H2'
p292
S"<class 'gluon.html.H2'>"
p293
sS'H3'
p294
S"<class 'gluon.html.H3'>"
p295
sS'BUTTON'
p296
S"<class 'gluon.html.BUTTON'>"
p297
sS'H1'
p298
S"<class 'gluon.html.H1'>"
p299
sS'plugin_gmap'
p300
S"<Storage {'represent': <function <lambda> at 0x7...8>, 'id': <function <lambda> at 0x7f3b0563f050>}>"
p301
sS'plugin_wiki_level'
p302
S'3'
sS'H5'
p303
S"<class 'gluon.html.H5'>"
p304
sS'UL'
p305
S"<class 'gluon.html.UL'>"
p306
sS'IS_UPPER'
p307
S"<class 'gluon.validators.IS_UPPER'>"
p308
sS'xmlescape'
p309
S'<function xmlescape>'
p310
sS'TT'
p311
S"<class 'gluon.html.TT'>"
p312
sS'IS_TIME'
p313
S"<class 'gluon.validators.IS_TIME'>"
p314
sS'email_user'
p315
S'<function email_user>'
p316
sS'cache'
p317
S'<gluon.cache.Cache object>'
p318
sS'OPTION'
p319
S"<class 'gluon.html.OPTION'>"
p320
sS'TITLE'
p321
S"<class 'gluon.html.TITLE'>"
p322
sS'DEFAULT'
p323
S"{'authorize_attachments': False, 'editor': True, 'level': 3, 'migrate': False, 'mode': 'html', 'theme': 'cupertino', 'widgets': 'all'}"
p324
sS'CRYPT'
p325
S"<class 'gluon.validators.CRYPT'>"
p326
sS'plugin_multiselect_include'
p327
S'<function plugin_multiselect_include>'
p328
sS'IS_EMPTY_OR'
p329
S"<class 'gluon.validators.IS_EMPTY_OR'>"
p330
sS'MARKMIN'
p331
S"<class 'gluon.html.MARKMIN'>"
p332
sS'__name__'
p333
S"'__restricted__'"
p334
sS'STRONG'
p335
S"<class 'gluon.html.STRONG'>"
p336
sS'COL'
p337
S"<class 'gluon.html.COL'>"
p338
sS'service'
p339
S'<gluon.tools.Service object>'
p340
sS'SCRIPT'
p341
S"<class 'gluon.html.SCRIPT'>"
p342
sS'GOOGLEMAP_KEY'
p343
S"'ABQIAAAAgmnPur4uFr3tfb2KjkqXHxRUlOG9qJIroEAuogNlnP0txuwBIxQxpGXF06NPhGKQ0uBcy_OLlgghdA'"
p344
sS'geocode'
p345
S'<function geocode>'
p346
sS'email_all_user'
p347
S'<function email_all_user>'
p348
sS'TABLE'
p349
S"<class 'gluon.html.TABLE'>"
p350
sS'IS_IPV4'
p351
S"<class 'gluon.validators.IS_IPV4'>"
p352
sS'IS_LENGTH'
p353
S"<class 'gluon.validators.IS_LENGTH'>"
p354
sS'IS_IPV6'
p355
S"<class 'gluon.validators.IS_IPV6'>"
p356
sS'XML'
p357
S"<class 'gluon.html.XML'>"
p358
sS'ANY_OF'
p359
S"<class 'gluon.validators.ANY_OF'>"
p360
sS'B'
S"<class 'gluon.html.B'>"
p361
sS'IMG'
p362
S"<class 'gluon.html.IMG'>"
p363
sS'SQLTABLE'
p364
S"<class 'gluon.sqlhtml.SQLTABLE'>"
p365
sS'menu_rec'
p366
S'<function menu_rec>'
p367
sS'slideshow'
p368
S'<function slideshow>'
p369
sS'mail'
p370
S'<gluon.tools.Mail object>'
p371
sS'PunktWordTokenizer'
p372
S"<class 'nltk.tokenize.punkt.PunktWordTokenizer'>"
p373
sS'SPAN'
p374
S"<class 'gluon.html.SPAN'>"
p375
sS'IS_JSON'
p376
S"<class 'gluon.validators.IS_JSON'>"
p377
sS'default'
p378
S'1L'
p379
sS'plugin_wiki_editor'
p380
g202
sS'IS_SLUG'
p381
S"<class 'gluon.validators.IS_SLUG'>"
p382
sS'BEAUTIFY'
p383
S"<class 'gluon.html.BEAUTIFY'>"
p384
sS'META'
p385
S"<class 'gluon.html.META'>"
p386
sS'error'
p387
S'<function error>'
p388
sS'plugin_wiki_migrate'
p389
S'False'
p390
sS'fetch'
p391
S'<function fetch>'
p392
sS'IS_DATE'
p393
S"<class 'gluon.validators.IS_DATE'>"
p394
sS'IS_EMAIL'
p395
S"<class 'gluon.validators.IS_EMAIL'>"
p396
sS'IS_NOT_EMPTY'
p397
S"<class 'gluon.validators.IS_NOT_EMPTY'>"
p398
sS'H6'
p399
S"<class 'gluon.html.H6'>"
p400
sS'TBODY'
p401
S"<class 'gluon.html.TBODY'>"
p402
sS'CAT'
p403
S"<class 'gluon.html.CAT'>"
p404
sS'Field'
p405
S"<class 'gluon.dal.objects.Field'>"
p406
sS'tag'
p407
S'None'
p408
sS'H4'
p409
S"<class 'gluon.html.H4'>"
p410
sS'IS_LIST_OF_EMAILS'
p411
S"<class 'gluon.validators.IS_LIST_OF_EMAILS'>"
p412
sg56
S"<Storage {'_vars': None, 'function': 'edit_page'...': '/usr/local/web2py/applications/Bundjalung/'}>"
p413
sS'Mail'
p414
S"<class 'gluon.tools.Mail'>"
p415
sS'DIV'
p416
S"<class 'gluon.html.DIV'>"
p417
sS'LEGEND'
p418
S"<class 'gluon.html.LEGEND'>"
p419
sS'EMAIL_AUTH'
p420
S"'ckutay@cities.org.au:AK131391'"
p421
sS'usernames'
p422
S"{None: 'Anonymous', 0: 'Anonymous', 1L: 'Cat Kutay', 2L: 'Cat Kutay', 3L: 'Margaret Sharpe', 4L: 'Ana Ash', 5L: 'Karyn Silva de Azevedo', 19L: 'Cat Kutay'}"
p423
sS'COLGROUP'
p424
S"<class 'gluon.html.COLGROUP'>"
p425
sS'DAL'
p426
S"<class 'gluon.dal.base.DAL'>"
p427
sS'ASSIGNJS'
p428
S'<function ASSIGNJS>'
p429
sS'TR'
p430
S"<class 'gluon.html.TR'>"
p431
sS'plugin_wiki_authorize_attachments'
p432
g390
sS'__package__'
p433
S'None'
p434
sS'TOP_MESSAGE'
p435
S"'Contact form'"
p436
sS'IFRAME'
p437
S"<class 'gluon.html.IFRAME'>"
p438
sS'dblanguage'
p439
S'<DAL uri="mysql:******@localhost/language">'
p440
sS'TD'
p441
S"<class 'gluon.html.TD'>"
p442
sS'PluginManager'
p443
S"<class 'gluon.tools.PluginManager'>"
p444
sS'IS_URL'
p445
S"<class 'gluon.validators.IS_URL'>"
p446
sS'IS_MATCH'
p447
S"<class 'gluon.validators.IS_MATCH'>"
p448
sS'A'
S"<class 'gluon.html.A'>"
p449
sS'STYLE'
p450
S"<class 'gluon.html.STYLE'>"
p451
sS'IS_DATETIME_IN_RANGE'
p452
S"<class 'gluon.validators.IS_DATETIME_IN_RANGE'>"
p453
sS'users'
p454
S'<Rows (6)>'
p455
sS'FORM'
p456
S"<class 'gluon.html.FORM'>"
p457
sS'I'
S"<class 'gluon.html.I'>"
p458
sS'crud'
p459
S'<gluon.tools.Crud object>'
p460
sS'who'
p461
S'1L'
p462
sS'use_janrain'
p463
S'<function use_janrain>'
p464
sS'VALUE'
p465
S"''"
p466
sS'IS_ALPHANUMERIC'
p467
S"<class 'gluon.validators.IS_ALPHANUMERIC'>"
p468
sS'sys'
p469
S"<module 'sys' (built-in)>"
p470
sS'IS_NOT_IN_DB'
p471
S"<class 'gluon.validators.IS_NOT_IN_DB'>"
p472
sg118
S"<Storage {'body': <cStringIO.StringO object at 0...on_data)>, 'view': 'plugin_wiki/edit_page.html'}>"
p473
sS'THEAD'
p474
S"<class 'gluon.html.THEAD'>"
p475
sS'Wiki'
p476
S"<class 'gluon.tools.Wiki'>"
p477
sS'plugin_multiselect'
p478
S'<function plugin_multiselect>'
p479
sS'IS_NULL_OR'
p480
S"<class 'gluon.validators.IS_EMPTY_OR'>"
p481
sS'plugin_wiki_mode'
p482
S"'html'"
p483
sS'url'
p484
S'<function url>'
p485
sS'multiselect_widget'
p486
S'<function multiselect_widget>'
p487
sS'IS_EXPR'
p488
S"<class 'gluon.validators.IS_EXPR'>"
p489
sS'EMAIL_SENDER'
p490
S"'ckutay@cities.org.au'"
p491
sS'IS_IN_SET'
p492
S"<class 'gluon.validators.IS_IN_SET'>"
p493
sS'u'
S"<Row {'first_name': 'Cat', 'last_name': 'Kutay',...d15cacb120a68f9818db', 'registration_key': None}>"
p494
sS'IS_UPLOAD_FILENAME'
p495
S"<class 'gluon.validators.IS_UPLOAD_FILENAME'>"
p496
sS'IS_DECIMAL_IN_RANGE'
p497
S"<class 'gluon.validators.IS_DECIMAL_IN_RANGE'>"
p498
sS'nltk'
p499
S"<module 'nltk' from '/usr/lib/python2.7/site-packages/nltk/__init__.pyc'>"
p500
sS'TFOOT'
p501
S"<class 'gluon.html.TFOOT'>"
p502
sssS'traceback'
p503
S'Traceback (most recent call last):\n  File "/usr/local/web2py/gluon/restricted.py", line 224, in restricted\n    exec ccode in environment\n  File "/usr/local/web2py/applications/Bundjalung/models/plugin_wiki.py", line 121, in <module>\n    Field(\'worksheet\',string, length=1,default=\'F\'),\nNameError: name \'string\' is not defined\n'
p504
s.