(dp1
S'output'
p2
S"<type 'exceptions.NameError'> name 'os' is not defined"
p3
sS'layer'
p4
S'/usr/local/web2py/applications/Bundjalung/views/plugin_wiki/edit_resource_transcript.html'
p5
sS'code'
p6
S'response.write(\'<!DOCTYPE html>\\n<html class="no-js" lang="\', escape=False)\nresponse.write(T.accepted_language or \'en\')\nresponse.write(\'"> <!--<![endif]-->\\n<head>\\n<title>\', escape=False)\nresponse.write(response.title or request.application)\nresponse.write(\'</title>\\n  <!--[if !HTML5]>\\n      <meta http-equiv="X-UA-Compatible" content="IE=edge\', escape=False)\nresponse.write(not request.is_local and \',chrome=1\' or \'\')\nresponse.write(\'">\\n  <![endif]-->\\n  <!-- www.phpied.com/conditional-comments-block-downloads/ -->\\n  <!-- Always force latest IE rendering engine\\n       (even in intranet) & Chrome Frame\\n       Remove this if you use the .htaccess -->\\n\\n  <meta charset="utf-8" />\\n\\n  <!-- http://dev.w3.org/html5/markup/meta.name.html -->\\n  <meta name="application-name" content="\', escape=False)\nresponse.write(request.application)\nresponse.write(\'" />\\n\\n  <!-- Speaking of Google, don\\\'t forget to set your site up:\\n       http://google.com/webmasters -->\\n  <meta name="google-site-verification" content="" />\\n\\n  <!--  Mobile Viewport Fix\\n        j.mp/mobileviewport & davidbcalhoun.com/2010/viewport-metatag\\n        device-width: Occupy full width of the screen in its current orientation\\n        initial-scale = 1.0 retains dimensions instead of zooming out if page height > device height\\n        user-scalable = yes allows the user to zoom in -->\\n  <meta name="viewport" content="width=device-width, initial-scale=1.0" />\\n\\n  <link rel="shortcut icon" href="\', escape=False)\nresponse.write(URL(\'static\',\'images/favicon.ico\'))\nresponse.write(\'" type="image/x-icon">\\n  <link rel="apple-touch-icon" href="\', escape=False)\nresponse.write(URL(\'static\',\'images/favicon.png\'))\nresponse.write(\'">\\n\\n  <!-- All JavaScript at the bottom, except for Modernizr which enables\\n       HTML5 elements & feature detects -->\\n  <script src="\', escape=False)\nresponse.write(URL(\'static\',\'js/modernizr.custom.js\'))\nresponse.write(\'"></script>\\n  <script src="\', escape=False)\nresponse.write(URL(\'static\',\'js/DHTML.js\'))\nresponse.write(\'"></script>\\n\\n  <!-- include stylesheets -->\\n  <!--bootstrap css minified-->\\n<link rel="stylesheet" href="http://tinymce.cachefly.net/4.1/skins/lightgray/skin.min.css">\\n  <link rel="stylesheet" href="https://maxcdn.bootstrapcdn.com/bootstrap/3.3.1/css/bootstrap.min.css">\\n <!-- Custom CSS -->\\n \', escape=False)\nresponse.files.insert(0,URL(\'static\',\'css/custom.css\'))\nresponse.write(\'\\n\\n  \', escape=False)\nresponse.write(\'<script type="text/javascript"><!--\\n    // These variables are used by the web2py_ajax_init function in web2py_ajax.js (which is loaded below).\\n    var w2p_ajax_confirm_message = "\', escape=False)\nresponse.write(T(\'Are you sure you want to delete this object?\'))\nresponse.write(\'";\\n    var w2p_ajax_disable_with_message = "\', escape=False)\nresponse.write(T(\'Working...\'))\nresponse.write(\'";\\n    var w2p_ajax_date_format = "\', escape=False)\nresponse.write(T(\'%Y-%m-%d\'))\nresponse.write(\'";\\n    var w2p_ajax_datetime_format = "\', escape=False)\nresponse.write(T(\'%Y-%m-%d %H:%M:%S\'))\nresponse.write(\'";\\n    var ajax_error_500 = \\\'\', escape=False)\nresponse.write(T.M(\'An error occured, please [[reload %s]] the page\') % URL(args=request.args, vars=request.get_vars))\nresponse.write("\'\\n    //--></script>\\n", escape=False)\nresponse.files.insert(0,URL(\'static\',\'js/jquery-1.11.2.min.js\'))\nresponse.files.insert(1,URL(\'static\',\'css/calendar.css\'))\nresponse.files.insert(2,URL(\'static\',\'js/calendar.js\'))\nresponse.files.insert(3,URL(\'static\',\'js/web2py.js\'))\nresponse.files.insert(4,URL(\'static\',\'css/jquery-ui.css\'))\nresponse.files.insert(5,URL(\'static\',\'js/jquery-ui.min.js\'))\nresponse.files.insert(6,URL(\'static\',\'plugin_multiselect/jquery.multiselect.js\'))\nresponse.include_meta()\nresponse.include_files()\nresponse.write(\'\\n\', escape=False)\nresponse.write(\'\\n<script src="\', escape=False)\nresponse.write(URL(c=\'static\',f=\'/js/jquery.imageLens.js\'))\nresponse.write(\'" type="text/javascript"></script>\\n<script>\\njQuery(function () {\\n  jQuery("#zoomLyr").imageLens({imageSrc: "\', escape=False)\nresponse.write(URL(c=\'static\',f=\'/images/Bundjalung-big.png\'))\nresponse.write(\'", lensSize:300 });\\n});\\n</script>\\n\\n  <noscript><link href="\', escape=False)\nresponse.write(URL(\'static\', \'css/web2py_bootstrap_nojs.css\'))\nresponse.write(\'" rel="stylesheet" type="text/css" /></noscript>\\n<script src="\', escape=False)\nresponse.write(URL(\'static\',\'plugin_wiki/tinymce/js/tinymce/tinymce.min.js\'))\nresponse.write(\'"></script>\\n<script>\\n\\n\\ntinymce.init({\\n\\tselector: "textarea",\\n\\ttheme: "modern",\\n\\tplugins: [\\n\\t\\t"advlist autolink lists link image charmap print preview hr anchor pagebreak",\\n\\t\\t"searchreplace wordcount visualblocks visualchars code fullscreen",\\n\\t\\t"insertdatetime media nonbreaking save table contextmenu directionality",\\n\\t\\t"emoticons template paste textcolor colorpicker textpattern "\\n\\t],\\n\\ttoolbar1: "insertfile undo redo | styleselect | bold italic | alignleft aligncenter alignright alignjustify | bullist numlist outdent indent | link image",\\n\\ttoolbar2: "print preview media | forecolor backcolor emoticons",\\n\\timage_advtab: true,\\n\\ttemplates: [\\n\\t\\t{title: \\\'Test template 1\\\', content: \\\'<b>Test 1</b>\\\'},\\n\\t\\t{title: \\\'Test template 2\\\', content: \\\'<em>Test 2</em>\\\'}\\n\\t],\\n\\tautosave_ask_before_unload: false\\n});\\n\\n</script>\\n  \', escape=False)\nresponse.write(\'\\n\\n<script>\\n$(document).ready(function() {\\n    $("#navbar li").on("click", function() {\\n        $("#navbar li").removeClass("active");\\n        $(this).addClass("active");\\n    });\\n\\n$(document).ready(function() {\\n   $(\\\'#page_body\\\').attr(\\\'cols\\\',80).attr(\\\'rows\\\',20);\\n   $(\\\'#comment_body\\\').attr(\\\'cols\\\',60).attr(\\\'rows\\\',5);\\n   $(\\\'#page_tags\\\').multiSelect({selectAll:false});\\n   $("#datepicker").datepicker();\\n});\\n});    \\n  </script>\\n  <style type="text/css" media="screen">\\n  /* (Index) Page Tab Navigation \\\'ON\\\' States (determined by ID identifier on li tag) */\\n  #subnav #video a                {background-position: 50 50px; border-width: 0;}\\n  #subnav #video a span   {background-position: 100% -24px; color: #000;}\\n\\n  li#video, li#spacer1 {display:none}\\n\\n  #tabnav #allvideo a             {background-position: 50 50px; border-width: 0;}\\n  #tabnav #allvideo a span        {background-position: 100% -24px; color: #fff;}\\n\\n  #sectiontab {padding-bottom:-10px; background-color:none;}\\n  div.tabfull {width:600px;}\\n\\n  ul li#navmap a {color:#B83000;}\\n\\n  #zoomLyr {float:right; cursor:crosshair; }\\n  </style>\\n</head>\\n\\n<body onLoad="setupText(this);">\\n<!-- start header -->\\n <!-- Navigation -->\\n  <nav class="navbar navbar-default navbar-fixed-top" role="navigation">\\n    <div class="container">\\n     <!-- Brand and toggle get grouped for better mobile display -->\\n      <div class="navbar-header">\\n        <button type="button" class="navbar-toggle collapsed" data-toggle="collapse" data-target="#navbar" aria-expanded="false" aria-controls="navbar">\\n          <span class="sr-only">Toggle navigation</span>\\n          <span class="icon-bar"></span>\\n          <span class="icon-bar"></span>\\n          <span class="icon-bar"></span>\\n        </button>\\n      </div>\\n      <!-- Collect the nav links, forms, and other content for toggling -->\\n      <div id="navbar" class="navbar-collapse collapse">\\n        <ul class="nav navbar-nav">\\n        \', escape=False)\nfor _name,_active,_link in response.menuTop :\n    response.write(\'\\n  \', escape=False)\n    if _name==\'About Us\'  :\n        response.write(\'\\n      <li class ="dropdown">\\n        <a href="\', escape=False)\n        response.write(_link)\n        response.write(\'" class="dropdown-toggle" data-toggle="dropdown" role="button" aria-expanded="false">\', escape=False)\n        response.write(_name)\n        response.write(\'<span class="caret"></span></a>\\n          <ul class="dropdown-menu" role="menu">\\n          \', escape=False)\n        for _name,_active,_link in response.menuAbout :\n            response.write(\'\\n            <li><a href="\', escape=False)\n            response.write(_link)\n            response.write(\'">\', escape=False)\n            response.write(_name)\n            response.write(\'</a></li>\\n          \', escape=False)\n            pass\n        response.write(\'\\n        </ul>\\n        </li>\\n  \', escape=False)\n    elif _name=="Resources" :\n        response.write(\'\\n\\n    <li class ="dropdown">\\n        <a href="\', escape=False)\n        response.write(_link)\n        response.write(\'" class="dropdown-toggle" data-toggle="dropdown" role="button" aria-expanded="false">\', escape=False)\n        response.write(_name)\n        response.write(\'<span class="caret"></span></a>\\n          <ul class="dropdown-menu" role="menu">\\n          \', escape=False)\n        for _name,_active,_link in response.menuResource:\n            response.write(\'\\n            <li><a href="\', escape=False)\n            response.write(_link)\n            response.write(\'">\', escape=False)\n            response.write(_name)\n            response.write(\'</a></li>\\n          \', escape=False)\n            pass\n        response.write(\'\\n        </ul>\\n        </li>\\n\\n\\n\\n  \', escape=False)\n    else:\n        response.write(\'\\n      <li><a href="\', escape=False)\n        response.write(_link)\n        response.write(\'" >\', escape=False)\n        response.write(_name)\n        response.write(\'</a></li>\\n   \', escape=False)\n        pass\n    response.write(\'\\n\', escape=False)\n    pass\nresponse.write(\'\\n</ul>\\n<ul class="nav navbar-nav navbar-right">\\n             \', escape=False)\nif auth.is_logged_in() :\n    response.write(\'\\n<li class="dropdown" id="menuLogin">\\n<a class="" href="\', escape=False)\n    response.write(URL(r=request, c=\'default\', f=\'user\', args=\'logout\'))\n    response.write(\'" role="button" id="navLogin">Logout<span class="caret"></span></a></li>\\n\', escape=False)\nelse:\n    response.write(\'\\n<li class="" id="menuLogin">\\n<a class="" href="\', escape=False)\n    response.write(URL(r=request, c=\'default\', f=\'user\', args=\'login\'))\n    response.write(\'" role="button" id="navLogin">Login<span class="caret"></span></a></li>\\n<li class="" id="menuLogin">\\n<a class="" href="\', escape=False)\n    response.write(URL(r=request, c=\'default\', f=\'user\', args=\'register\'))\n    response.write(\'" role="button" id="navLogin">Register<span class="caret"></span></a></li>\\n\\n\', escape=False)\n    pass\nresponse.write(\'\\n\\n      <!-- /.navbar-collapse -->\\n    </div>\\n<div id="popupForm" ></div>\\n        <!-- /.container -->\\n  </nav>\\n\\n    <!-- Image Background Page Header -->\\n    <!-- Note: The background image is set within the business-casual.css file. -->\\n  <header class="business-header">\\n      <div class="container">\\n        <div class="row">\\n          <div class="col-sm-4">\\n            <img class="img-responsive" id="circle-img-first" src="/Bundjalung/static/images/img_first.png" >\\n          </div>\\n          <div class="col-sm-8">\\n            <a href="\', escape=False)\nresponse.write(URL(r=request, c=\'plugin_wiki\',f=\'page\'))\nresponse.write(\'"> <h1 id="title" class="tagline">\', escape=False)\nresponse.write(response.title)\nresponse.write(\'</h1></a>\\n          </div>\\n        </div>\\n      </div>\\n  </header>\\n  \\n    <!-- Page Content -->\\n<div class="container">\\n<div id="page">\\n\', escape=False)\nif response.flash:\n    response.write(\'\\n    <div class="flash">\', escape=False)\n    response.write(response.flash)\n    response.write(\'</div>\\n\', escape=False)\n    pass\nresponse.write(\'\\n<div id="popupword" ></div>\\n    <div class="container">\\n\\n        <div class="row">\\n\\n\', escape=False)\nresponse.write(\'\\n<div id="hidden">\\n<script type="text/javascript" src="\', escape=False)\nresponse.write(URL(\'static\',\'plugin_wiki/markitup/jquery.markitup.pack.js\'))\nresponse.write(\'"></script>\\n<script type="text/javascript" src="\', escape=False)\nresponse.write(URL(\'static\',\'plugin_wiki/markitup/sets/markmin/set.js\'))\nresponse.write(\'"></script>\\n<link rel="stylesheet" type="text/css" href="\', escape=False)\nresponse.write(URL(\'static\',\'plugin_wiki/markitup/skins/markitup/style.css\'))\nresponse.write(\'" />\\n<link rel="stylesheet" type="text/css" href="\', escape=False)\nresponse.write(URL(\'static\',\'plugin_wiki/markitup/sets/markmin/style.css\'))\nresponse.write(\'" />\\n<link rel="stylesheet" type="text/css" href="\', escape=False)\nresponse.write(URL(\'static\',\'js/jqueryMultiSelect.css\'))\nresponse.write(\'" />\\n<script src="\', escape=False)\nresponse.write(URL(\'static\',\'plugin_wiki/elrte-1.3/js/elrte.min.js\'))\nresponse.write(\'" type="text/javascript" charset="utf-8"></script>\\n<link rel="stylesheet" href="\', escape=False)\nresponse.write(URL(\'static\',\'plugin_wiki/elrte-1.3/css/elrte.full.css\'))\nresponse.write(\'" type="text/css" media="screen" charset="utf-8">\\n<link rel="stylesheet" href="\', escape=False)\nresponse.write(URL(\'static\',\'plugin_wiki/elrte-1.3/js/ui-themes/base/jquery-ui.css\'))\nresponse.write(\'" type="text/css" media="screen" charset="utf-8">\\n\\n</div>\\n\', escape=False)\nif resource:\n    response.write(\'\\n<h3>\', escape=False)\n    response.write(resource.title)\n    response.write(\'</h3>\\n\', escape=False)\n    pass\nresponse.write(\'\\n<br>\\n<audio controls>\\n  <source src=\', escape=False)\nresponse.write(URL(c="default", f="filedownload", args=os.path.join("file", resource.name)))\nresponse.write(\' type="audio/mpeg">\\nYour browser does not support the audio element.\\n</audio>\\n<p></p>\\n<br>\\n<h3>Edit Transcript </h3>\\n\\n<div id="plugin_wiki_form">\\n\', escape=False)\nresponse.write(form.custom.begin)\nresponse.write(\'\\n<b>Page Unique Identifier (no spaces):</b> \', escape=False)\nresponse.write(form.custom.widget.slug)\nresponse.write(\'\\n<br><b>Title:</b> \', escape=False)\nresponse.write(form.custom.widget.title)\nresponse.write(\'<br/>\\n<b>Active:</b> \', escape=False)\nresponse.write(form.custom.widget.is_active)\nresponse.write(\'\\n<b>Public:</b> \', escape=False)\nresponse.write(form.custom.widget.is_public)\nresponse.write(\'\\n\', escape=False)\nresponse.write(form.custom.widget.body)\nresponse.write(\'<br/>\\n<div> \\n<b>Changelog:</b> \', escape=False)\nresponse.write(form.custom.widget.changelog)\nresponse.write(\' \\n<b>Delete?</b> \', escape=False)\nresponse.write(form.custom.deletable)\nresponse.write(\'<b><br>&nbsp;&nbsp;&nbsp;&nbsp;&nbsp;&nbsp;&nbsp;&nbsp;\', escape=False)\nresponse.write(form.custom.submit)\nresponse.write(\'</b>&nbsp;&nbsp;&nbsp;&nbsp;&nbsp;&nbsp;&nbsp;&nbsp;\\n<script>\\njQuery(\\\'input[type=submit]\\\').after(\\\'<button onclick="document.location=\\\\\\\'\', escape=False)\nresponse.write(URL(c="plugin_wiki", f="transcript",args=request.args))\nresponse.write(\'\\\\\\\';return false">Cancel\\\');\\n</script>\\n</b>\', escape=False)\nresponse.write(form.custom.end)\nresponse.write(\'\\n<br>\\n\', escape=False)\nif request.extension==\'html\':\n    response.write(\' \\n<script>\\njQuery(document).ready(function() {\\n\', escape=False)\n    if plugin_wiki_mode==\'html\':\n        response.write("\\n  elRTE.prototype.options.panels.web2pyPanel = [\\n     \'bold\', \'italic\', \'underline\', \'forecolor\', \'justifyleft\', \'justifyright\',\\n     \'justifycenter\', \'justifyfull\', \'formatblock\', \'insertorderedlist\', \'insertunorderedlist\',\\n     \'link\', \'image\', \'flash\'];\\n  elRTE.prototype.options.toolbars.web2pyToolbar = [\'web2pyPanel\', \'tables\'];\\n  var opts = { toolbar  : \'web2pyToolbar\' }\\n  jQuery(\'#plugin_wiki_transcript_body\').elrte(opts);\\n", escape=False)\n    else:\n        response.write("\\n  jQuery(\'#plugin_wiki_transcript_body\').css(\'width\',\'700px\').css(\'height\',\'400px\').markItUp(mySettings);\\n", escape=False)\n        pass\n    response.write(\'\\n});\\n</script>\\n</div>\\n\', escape=False)\n    pass\nresponse.write(\'\\n</script>\\n\', escape=False)\npass\nresponse.write(\'\\n\\n\', escape=False)\nresponse.write(\'\\n</div>\\n</div>\\n</div>\\n</div>\\n    <hr>\\n       <div class="container">\\n\\n        <div class="row">\\n\\n \\n        <footer>\\n          <div class="row">\\n      <div class="col-lg-4"></div>\\n            <div class="col-lg-4">\\n              <p> This project is an initiative of:\\n              <a href="http://www.muurrbay.org.au/">\\n              <img src="/Bundjalung/static/images/muurrbay.png" height="40px"></a>\\n              <p>Copyright &copy; Muurrbay Aboriginal Language and Culture Cooperative</p></a>\\n            </div>\\n          </div>\\n        </footer>\\n      </div>\\n</div>\\n</div>\\n<script>\\nvar el = $(\\\'#popupword\\\');\\nvar elpos_original = el.offset().top;\\n$(window).scroll(function(){\\n    var elpos = el.offset().top;\\n    var windowpos = $(window).scrollTop();\\n    var finaldestination = windowpos;\\n    if(windowpos<elpos_original) {\\n        finaldestination = elpos_original;\\n        el.stop().css({\\\'top\\\':10});\\n    } else {\\n        el.stop().animate({\\\'top\\\':finaldestination-elpos_original+10},500);\\n    }\\n});\\n</script>\\n    <!-- Bootstrap core JavaScript\\n    ================================================== -->\\n    <!-- Placed at the end of the document so the pages load faster -->\\n    <script src="\', escape=False)\nresponse.write(URL(\'static\',\'/js/bootstrap.min.js\'))\nresponse.write(\'"></script>\\n</body>\\n</html>\\n\', escape=False)'
p7
sS'snapshot'
p8
(dp9
sS'traceback'
p10
S'Traceback (most recent call last):\n  File "/usr/local/web2py/gluon/restricted.py", line 224, in restricted\n    exec ccode in environment\n  File "/usr/local/web2py/applications/Bundjalung/views/plugin_wiki/edit_resource_transcript.html", line 136, in <module>\nNameError: name \'os\' is not defined\n'
p11
s.