(dp1
S'output'
p2
S"<type 'exceptions.AttributeError'> 'Row' object has no attribute 'colour'"
p3
sS'layer'
p4
S'/usr/local/web2py/applications/Bundjalung/views/language/dictionary.html'
p5
sS'code'
p6
S'response.write(\' \', escape=False)\nresponse.write(\'<!DOCTYPE html>\\n<html class="no-js" lang="\', escape=False)\nresponse.write(T.accepted_language or \'en\')\nresponse.write(\'"> <!--<![endif]-->\\n<head>\\n<title>\', escape=False)\nresponse.write(response.title or request.application)\nresponse.write(\'</title>\\n  <!--[if !HTML5]>\\n      <meta http-equiv="X-UA-Compatible" content="IE=edge\', escape=False)\nresponse.write(not request.is_local and \',chrome=1\' or \'\')\nresponse.write(\'">\\n  <![endif]-->\\n  <!-- www.phpied.com/conditional-comments-block-downloads/ -->\\n  <!-- Always force latest IE rendering engine\\n       (even in intranet) & Chrome Frame\\n       Remove this if you use the .htaccess -->\\n\\n  <meta charset="utf-8" />\\n\\n  <!-- http://dev.w3.org/html5/markup/meta.name.html -->\\n  <meta name="application-name" content="\', escape=False)\nresponse.write(request.application)\nresponse.write(\'" />\\n\\n  <!-- Speaking of Google, don\\\'t forget to set your site up:\\n       http://google.com/webmasters -->\\n  <meta name="google-site-verification" content="" />\\n\\n  <!--  Mobile Viewport Fix\\n        j.mp/mobileviewport & davidbcalhoun.com/2010/viewport-metatag\\n        device-width: Occupy full width of the screen in its current orientation\\n        initial-scale = 1.0 retains dimensions instead of zooming out if page height > device height\\n        user-scalable = yes allows the user to zoom in -->\\n  <meta name="viewport" content="width=device-width, initial-scale=1.0" />\\n\\n  <link rel="shortcut icon" href="\', escape=False)\nresponse.write(URL(\'static\',\'images/favicon.ico\'))\nresponse.write(\'" type="image/x-icon">\\n  <link rel="apple-touch-icon" href="\', escape=False)\nresponse.write(URL(\'static\',\'images/favicon.png\'))\nresponse.write(\'">\\n\\n  <!-- All JavaScript at the bottom, except for Modernizr which enables\\n       HTML5 elements & feature detects -->\\n  <script src="\', escape=False)\nresponse.write(URL(\'static\',\'js/modernizr.custom.js\'))\nresponse.write(\'"></script>\\n  <script src="\', escape=False)\nresponse.write(URL(\'static\',\'js/DHTML.js\'))\nresponse.write(\'"></script>\\n\\n  <!-- include stylesheets -->\\n  <!--bootstrap css minified-->\\n<link rel="stylesheet" href="http://tinymce.cachefly.net/4.1/skins/lightgray/skin.min.css">\\n  <link rel="stylesheet" href="https://maxcdn.bootstrapcdn.com/bootstrap/3.3.1/css/bootstrap.min.css">\\n <!-- Custom CSS -->\\n \', escape=False)\nresponse.files.insert(0,URL(\'static\',\'css/custom.css\'))\nresponse.write(\'\\n\\n  \', escape=False)\nresponse.write(\'<script type="text/javascript"><!--\\n    // These variables are used by the web2py_ajax_init function in web2py_ajax.js (which is loaded below).\\n    var w2p_ajax_confirm_message = "\', escape=False)\nresponse.write(T(\'Are you sure you want to delete this object?\'))\nresponse.write(\'";\\n    var w2p_ajax_disable_with_message = "\', escape=False)\nresponse.write(T(\'Working...\'))\nresponse.write(\'";\\n    var w2p_ajax_date_format = "\', escape=False)\nresponse.write(T(\'%Y-%m-%d\'))\nresponse.write(\'";\\n    var w2p_ajax_datetime_format = "\', escape=False)\nresponse.write(T(\'%Y-%m-%d %H:%M:%S\'))\nresponse.write(\'";\\n    var ajax_error_500 = \\\'\', escape=False)\nresponse.write(T.M(\'An error occured, please [[reload %s]] the page\') % URL(args=request.args, vars=request.get_vars))\nresponse.write("\'\\n    //--></script>\\n", escape=False)\nresponse.files.insert(0,URL(\'static\',\'js/jquery-1.11.2.min.js\'))\nresponse.files.insert(1,URL(\'static\',\'css/calendar.css\'))\nresponse.files.insert(2,URL(\'static\',\'js/calendar.js\'))\nresponse.files.insert(3,URL(\'static\',\'js/web2py.js\'))\nresponse.files.insert(4,URL(\'static\',\'css/jquery-ui.css\'))\nresponse.files.insert(5,URL(\'static\',\'js/jquery-ui.min.js\'))\nresponse.files.insert(6,URL(\'static\',\'plugin_multiselect/jquery.multiselect.js\'))\nresponse.include_meta()\nresponse.include_files()\nresponse.write(\'\\n\', escape=False)\nresponse.write(\'\\n<script src="\', escape=False)\nresponse.write(URL(c=\'static\',f=\'/js/jquery.imageLens.js\'))\nresponse.write(\'" type="text/javascript"></script>\\n<script>\\njQuery(function () {\\n  jQuery("#zoomLyr").imageLens({imageSrc: "\', escape=False)\nresponse.write(URL(c=\'static\',f=\'/images/Bundjalung-big.png\'))\nresponse.write(\'", lensSize:300 });\\n});\\n</script>\\n\\n  <noscript><link href="\', escape=False)\nresponse.write(URL(\'static\', \'css/web2py_bootstrap_nojs.css\'))\nresponse.write(\'" rel="stylesheet" type="text/css" /></noscript>\\n<script src="\', escape=False)\nresponse.write(URL(\'static\',\'plugin_wiki/tinymce/js/tinymce/tinymce.min.js\'))\nresponse.write(\'"></script>\\n<script>\\n\\n\\ntinymce.init({\\n\\tselector: "textarea",\\n\\ttheme: "modern",\\n\\tplugins: [\\n\\t\\t"advlist autolink lists link image charmap print preview hr anchor pagebreak",\\n\\t\\t"searchreplace wordcount visualblocks visualchars code fullscreen",\\n\\t\\t"insertdatetime media nonbreaking save table contextmenu directionality",\\n\\t\\t"emoticons template paste textcolor colorpicker textpattern "\\n\\t],\\n\\ttoolbar1: "insertfile undo redo | styleselect | bold italic | alignleft aligncenter alignright alignjustify | bullist numlist outdent indent | link image",\\n\\ttoolbar2: "print preview media | forecolor backcolor emoticons",\\n\\timage_advtab: true,\\n\\ttemplates: [\\n\\t\\t{title: \\\'Test template 1\\\', content: \\\'<b>Test 1</b>\\\'},\\n\\t\\t{title: \\\'Test template 2\\\', content: \\\'<em>Test 2</em>\\\'}\\n\\t],\\n\\tautosave_ask_before_unload: false\\n});\\n\\n</script>\\n  \', escape=False)\nresponse.write(\'\\n\\n<script>\\n$(document).ready(function() {\\n    $("#navbar li").on("click", function() {\\n        $("#navbar li").removeClass("active");\\n        $(this).addClass("active");\\n    });\\n\\n$(document).ready(function() {\\n   $(\\\'#page_body\\\').attr(\\\'cols\\\',80).attr(\\\'rows\\\',20);\\n   $(\\\'#comment_body\\\').attr(\\\'cols\\\',60).attr(\\\'rows\\\',5);\\n   $(\\\'#page_tags\\\').multiSelect({selectAll:false});\\n   $("#datepicker").datepicker();\\n});\\n});    \\n  </script>\\n  <style type="text/css" media="screen">\\n  /* (Index) Page Tab Navigation \\\'ON\\\' States (determined by ID identifier on li tag) */\\n  #subnav #video a                {background-position: 50 50px; border-width: 0;}\\n  #subnav #video a span   {background-position: 100% -24px; color: #000;}\\n\\n  li#video, li#spacer1 {display:none}\\n\\n  #tabnav #allvideo a             {background-position: 50 50px; border-width: 0;}\\n  #tabnav #allvideo a span        {background-position: 100% -24px; color: #fff;}\\n\\n  #sectiontab {padding-bottom:-10px; background-color:none;}\\n  div.tabfull {width:600px;}\\n\\n  ul li#navmap a {color:#B83000;}\\n\\n  #zoomLyr {float:right; cursor:crosshair; }\\n  </style>\\n</head>\\n\\n<body onLoad="setupText(this);">\\n<!-- start header -->\\n <!-- Navigation -->\\n  <nav class="navbar navbar-default navbar-fixed-top" role="navigation">\\n    <div class="container">\\n     <!-- Brand and toggle get grouped for better mobile display -->\\n      <div class="navbar-header">\\n        <button type="button" class="navbar-toggle collapsed" data-toggle="collapse" data-target="#navbar" aria-expanded="false" aria-controls="navbar">\\n          <span class="sr-only">Toggle navigation</span>\\n          <span class="icon-bar"></span>\\n          <span class="icon-bar"></span>\\n          <span class="icon-bar"></span>\\n        </button>\\n      </div>\\n      <!-- Collect the nav links, forms, and other content for toggling -->\\n      <div id="navbar" class="navbar-collapse collapse">\\n        <ul class="nav navbar-nav">\\n        \', escape=False)\nfor _name,_active,_link in response.menuTop :\n    response.write(\'\\n  \', escape=False)\n    if _name==\'About Us\'  :\n        response.write(\'\\n      <li class ="dropdown">\\n        <a href="\', escape=False)\n        response.write(_link)\n        response.write(\'" class="dropdown-toggle" data-toggle="dropdown" role="button" aria-expanded="false">\', escape=False)\n        response.write(_name)\n        response.write(\'<span class="caret"></span></a>\\n          <ul class="dropdown-menu" role="menu">\\n          \', escape=False)\n        for _name,_active,_link in response.menuAbout :\n            response.write(\'\\n            <li><a href="\', escape=False)\n            response.write(_link)\n            response.write(\'">\', escape=False)\n            response.write(_name)\n            response.write(\'</a></li>\\n          \', escape=False)\n            pass\n        response.write(\'\\n        </ul>\\n        </li>\\n  \', escape=False)\n    elif _name=="Resources" :\n        response.write(\'\\n\\n    <li class ="dropdown">\\n        <a href="\', escape=False)\n        response.write(_link)\n        response.write(\'" class="dropdown-toggle" data-toggle="dropdown" role="button" aria-expanded="false">\', escape=False)\n        response.write(_name)\n        response.write(\'<span class="caret"></span></a>\\n          <ul class="dropdown-menu" role="menu">\\n          \', escape=False)\n        for _name,_active,_link in response.menuResource:\n            response.write(\'\\n            <li><a href="\', escape=False)\n            response.write(_link)\n            response.write(\'">\', escape=False)\n            response.write(_name)\n            response.write(\'</a></li>\\n          \', escape=False)\n            pass\n        response.write(\'\\n        </ul>\\n        </li>\\n\\n\\n\\n  \', escape=False)\n    else:\n        response.write(\'\\n      <li><a href="\', escape=False)\n        response.write(_link)\n        response.write(\'" >\', escape=False)\n        response.write(_name)\n        response.write(\'</a></li>\\n   \', escape=False)\n        pass\n    response.write(\'\\n\', escape=False)\n    pass\nresponse.write(\'\\n\\n<ul class="nav navbar-nav navbar-right">\\n             \', escape=False)\nif auth.is_logged_in() :\n    response.write(\'\\n<li class="dropdown" id="menuLogin">\\n<a class="" href="\', escape=False)\n    response.write(URL(r=request, c=\'default\', f=\'user\', args=\'logout\'))\n    response.write(\'" role="button" id="navLogin">Logout<span class="caret"></span></a></li>\\n\', escape=False)\nelse:\n    response.write(\'\\n<li class="" id="menuLogin">\\n<a class="" href="\', escape=False)\n    response.write(URL(r=request, c=\'default\', f=\'user\', args=\'login\'))\n    response.write(\'" role="button" id="navLogin">Login<span class="caret"></span></a></li>\\n<li class="" id="menuLogin">\\n<a class="" href="\', escape=False)\n    response.write(URL(r=request, c=\'default\', f=\'user\', args=\'register\'))\n    response.write(\'" role="button" id="navLogin">Register<span class="caret"></span></a></li>\\n\\n\', escape=False)\n    pass\nresponse.write(\'\\n\\n      <!-- /.navbar-collapse -->\\n    </div>\\n<div id="popupForm" ></div>\\n        <!-- /.container -->\\n  </nav>\\n\\n    <!-- Image Background Page Header -->\\n    <!-- Note: The background image is set within the business-casual.css file. -->\\n  <header class="business-header">\\n      <div class="container">\\n        <div class="row">\\n          <div class="col-sm-4">\\n            <img class="img-responsive" id="circle-img-first" src="/Bundjalung/static/images/img_first.png" >\\n          </div>\\n          <div class="col-sm-8">\\n            <a href="\', escape=False)\nresponse.write(URL(r=request, c=\'plugin_wiki\',f=\'page\'))\nresponse.write(\'"> <h1 id="title" class="tagline">\', escape=False)\nresponse.write(response.title)\nresponse.write(\'</h1></a>\\n          </div>\\n        </div>\\n      </div>\\n  </header>\\n  \\n    <!-- Page Content -->\\n<div class="container">\\n<div id="page">\\n\', escape=False)\nif response.flash:\n    response.write(\'\\n    <div class="flash">\', escape=False)\n    response.write(response.flash)\n    response.write(\'</div>\\n\', escape=False)\n    pass\nresponse.write(\'\\n<div id="popupword" ></div>\\n    <div class="container">\\n\\n        <div class="row">\\n\\n\', escape=False)\nresponse.write(\'\\n\', escape=False)\nif start==True:\n    response.write(\'\\n   <!-- Page Content -->\\n            <div class="col-sm-12">\\n\\n                <br><br>\\n\\n<div id="page-title" class="well well-sm">\\n<h3>\', escape=False)\n    response.write(top_message)\n    response.write(\'</h3>\\n</div>\\n                \\n\\n                <h3>How to use this dictionary?</h3>\\n<p>\\n                \', escape=False)\n    response.write(plugin_wiki.render(page))\n    response.write(\'\\n</p>\\n<p>\\n    <a class="btn btn-default btn-lg" href=\', escape=False)\n    response.write(URL(c="plugin_wiki", f="page", args="usedictionary"))\n    response.write(\' >More &raquo;</a>\\n</p>\\n<hr>\\n\', escape=False)\n    pass\nresponse.write(\'\\n       <div id="search-jumbo" >\\n\\n        <div class="row">\\n          <div class="col-sm-6"> \\n                <h3>Search</h3>\\n                <form method="get" class="form-group" action="#">\\n\\t\\t<div class="row">\\n                        <div class="col-sm-6">\\n\\t\\t\\t\\t<div class="input-group">\\n\\n                    \\t\\t<input type="text" class="form-control" id="s" placeholder="Search for..." name="query"/> \\n\\t\\t\\t\\t<span class="input-group-btn">\\n<input type="submit" value="Search" class="btn btn-default" id="x"\\n       onclick="\', escape=False)\nresponse.write(URL(r=request, c=\'language\', f=\'wordlist\' , args=\'search\'))\nresponse.write(\'"/>\\n                    </span>\\n\\t\\t\\t\\t </div><!-- /input-group -->\\n                        </div>\\n                    </div>\\n                    <div class="row">\\n                        <div class="col-sm-6">\\n                            <div class="radio">\\n\\t\\t\\t<label>    <input type="radio" name="type" value="Category" \', escape=False)\nif sort=="Category":\n    response.write(\' checked\', escape=False)\n    pass\nresponse.write(\'/> Category   </label>\\n\\t\\t\\t <label> <input type="radio" name="type" value="English" \', escape=False)\nif sort=="English":\n    response.write(\' checked\', escape=False)\n    pass\nresponse.write(\'/> English </label>\\n                        <label>\\n                                <input type="radio" name="type" value="Bundjalung" \', escape=False)\nif sort=="Bundjalung":\n    response.write(\' checked\', escape=False)\n    pass\nresponse.write(\' /> Bundjalung  </label>\\n\\t\\t\\t</div>\\n                        <div class="span4 collapse-group" >\\n                                <p  class="collapse" id="viewdetails">   \\n\\t\\t   <input type="radio" name="numeric" value="Exact" \', escape=False)\nif exact=="Exact":\n    response.write(\' checked\', escape=False)\n    pass\nresponse.write(\'/> Exact Search  </input>\\n\\t\\t   <input type="radio" name="numeric" value="Related" \', escape=False)\nif exact!="Exact":\n    response.write(\' checked\', escape=False)\n    pass\nresponse.write(\' />Search Related  \\n\\t\\t <br> <label>Select Dialect: </label> <select id="dialect" name="dialect">\\n                \', escape=False)\nfor name in names:\n    response.write(\'\\n                 <option value=\', escape=False)\n    response.write(name.name)\n    response.write(\' \', escape=False)\n    if dialect==name.name:\n        response.write(\'selected\', escape=False)\n        pass\n    response.write(\'>\', escape=False)\n    response.write(name.name)\n    response.write(\'</option>\\n                \', escape=False)\n    pass\nresponse.write(\'\\n                </select>\\n</p>\\n\\n\\t\\t<a class="btn showdetails" data-toggle="collapse" data-target="#viewdetails"></a>\\n\\t\\t\\t</div>\\n                    </div>\\n\\t\\t</div>\\n                </form>\\n</div><div class="col-sm-6">\\n<img style="float: right; margin: 0px 15px 15px 0px; height: 200px;" src="http://bundjalung.dalang.com.au/Bundjalung/static/images/Bundjalung.jpg" >\\n<div style="margin-top: 30px;">\\n</div>\\n<p><strong>The Search parameters used are:</strong>\\n</p><p>\\nSearch word: \', escape=False)\nresponse.write(exact)\nresponse.write(\'\\n</p><p>\\nSearch Type: \', escape=False)\nresponse.write(sort)\nresponse.write(\'\\n</p><p>\\n\', escape=False)\nif dialect:\n    response.write(\' Dialect: \', escape=False)\n    response.write(dialect)\n    response.write(\'\\n\', escape=False)\nelse:\n    response.write(\'\\nAll dialects\', escape=False)\n    pass\nresponse.write(\'\\n</p></div>\\n</div></div>\\n<hr>\\n<div id="popupword" ></div>\\n        <div id="WordList" class="jumbotron">\\n    <div class="row">\\n<div class="col-md-11 " >\\n<h3>Word List\\n</h3>\\n<table class="table table-condensed text-left">\\n<tr><td>\', escape=False)\nresponse.write(A(\'Category\',_href=URL(r=request, c=\'language\', f=\'dictionary\', args=\'Category\')))\nresponse.write(\'\\n<td>\', escape=False)\nresponse.write(A(\'English\',_href=URL(r=request, c=\'language\', f=\'dictionary\', args=\'English\')))\nresponse.write(\'</td>\\n<td>\', escape=False)\nresponse.write(A(language,_href=URL(r=request, c=\'language\', f=\'dictionary\', args=language)))\nresponse.write(\'</td>\\n<td>Dialect</td>\\n<td></td>\\n<td></td>\\n</tr>\\n\', escape=False)\nfor word in words:\n    response.write(\'\\n<font colour="\', escape=False)\n    response.write(word.colour)\n    response.write(\'">\\n<tr class="text-left">\\n<td>\', escape=False)\n    response.write(T(word.Category))\n    response.write(\'</td>\\n<td>\', escape=False)\n    response.write(T(word.Search_English))\n    response.write(\'</td>\\n<td>\', escape=False)\n    response.write(T(word.Language_Word))\n    response.write(\'</td>\\n<td>\', escape=False)\n    response.write(T(word.dialect))\n    response.write(\'</td>\\n\', escape=False)\n    if word.Sound!=None:\n        response.write(\'\\n<td >\\n<a href=\', escape=False)\n        response.write(URL(r=request, c=\'language\',f=\'view_word\',args=word.id))\n        response.write(\' target="_blank" onMouseOver="DHTMLSound(\\\'\', escape=False)\n        response.write(T(word.Sound))\n        response.write("\',\'<b><i>", escape=False)\n        response.write(T(word.Language_Word))\n        response.write(\'</i></b><br>\', escape=False)\n        response.write(T(word.Search_English))\n        response.write(\'\\\');" >Listen</a></td>\\n\', escape=False)\n    else:\n        response.write(\'\\n<td ></td>\\n</font>\\n\', escape=False)\n        pass\n    response.write(\'\\n\', escape=False)\n    if auth.is_logged_in() :\n        response.write(\'\\n        <td>[\', escape=False)\n        response.write(A(\'edit\',_href=URL(r=request,c=\'language\', f=\'edit_word\',args=word.id)))\n        response.write(\']</td>\\n\', escape=False)\n    else:\n        response.write(\'\\n <td>[\', escape=False)\n        response.write(A(\'more\',_href=URL(r=request,c=\'language\', f=\'view_word\',args=word.id)))\n        response.write(\']</td>\\n\', escape=False)\n        pass\n    response.write(\'\\n </tr>\\n  \', escape=False)\n    pass\nresponse.write(\'\\n\', escape=False)\nif auth.is_logged_in() :\n    response.write(\'\\n[\', escape=False)\n    response.write(A(T(\'Enter new word\'), _href=URL(r=request, f=\'enter_word \')))\n    response.write(\']\\n\', escape=False)\n    pass\nresponse.write(\'\\n</table>\\n</div>\\n\\n<div class="col-md-1 ">\\n<b>Select more</b>\\n<br>\\n\', escape=False)\nfor num in numerics:\n    response.write(\'\\n<br>\', escape=False)\n    if numeric==num:\n        response.write(\'*\', escape=False)\n        pass\n    response.write(A(num, _href=URL(r=request, c=\'language\', f=\'dictionary\', vars={\'type\': sort, \'numeric\':num, \'query\':query, \'dialect\':dialect})))\n    response.write(\'\\n\', escape=False)\n    pass\nresponse.write(\'\\n<br>\\n</div>\\n</div>\\n\\n\', escape=False)\nresponse.write(\'\\n</div>\\n</div>\\n</div>\\n</div>\\n    <hr>\\n       <div class="container">\\n\\n        <div class="row">\\n\\n \\n        <footer>\\n          <div class="row">\\n      <div class="col-lg-4"></div>\\n            <div class="col-lg-4">\\n              <p> This project is an initiative of:\\n              <a href="http://www.muurrbay.org.au/">\\n              <img src="/Bundjalung/static/images/muurrbay.png" height="40px"></a>\\n              <p>Copyright &copy; Muurrbay Aboriginal Language and Culture Cooperative</p></a>\\n            </div>\\n          </div>\\n        </footer>\\n      </div>\\n</div>\\n</div>\\n<script>\\nvar el = $(\\\'#popupword\\\');\\nvar elpos_original = el.offset().top;\\n$(window).scroll(function(){\\n    var elpos = el.offset().top;\\n    var windowpos = $(window).scrollTop();\\n    var finaldestination = windowpos;\\n    if(windowpos<elpos_original) {\\n        finaldestination = elpos_original;\\n        el.stop().css({\\\'top\\\':10});\\n    } else {\\n        el.stop().animate({\\\'top\\\':finaldestination-elpos_original+10},500);\\n    }\\n});\\n</script>\\n    <!-- Bootstrap core JavaScript\\n    ================================================== -->\\n    <!-- Placed at the end of the document so the pages load faster -->\\n    <script src="\', escape=False)\nresponse.write(URL(\'static\',\'/js/bootstrap.min.js\'))\nresponse.write(\'"></script>\\n</body>\\n</html>\\n\', escape=False)'
p7
sS'snapshot'
p8
(dp9
sS'traceback'
p10
S'Traceback (most recent call last):\n  File "/usr/local/web2py/gluon/restricted.py", line 224, in restricted\n    exec ccode in environment\n  File "/usr/local/web2py/applications/Bundjalung/views/language/dictionary.html", line 179, in <module>\n  File "/usr/local/web2py/gluon/dal/objects.py", line 81, in __getitem__\n    raise ae\nAttributeError: \'Row\' object has no attribute \'colour\'\n'
p11
s.