(dp1
S'output'
p2
S"<type 'exceptions.AttributeError'> 'NoneType' object has no attribute 'SoundFile'"
p3
sS'layer'
p4
S'/usr/local/web2py/applications/Bundjalung/controllers/language.py'
p5
sS'code'
p6
S'import string\n\n# NOte the existence of languageList!=None means this is part of dictinary interface\nlangaugeList=language\n@auth.requires_login()\ndef index():\n    \n        words=dblanguage(languagewords.id>0).select( orderby=languagewords.English)\n\n    \treturn dict(words=words)\n\n\n#FIXME language dependant\nimport os\nimport ftfy\n\ndef fix_word(word):\n\n    word.Comment=fix_bad_unicode(word.Comment.strip())\n    word.Gold_Coast_Tweed=fix_bad_unicode( word.Gold_Coast_Tweed.strip())\n    word.Lower_Richmond=fix_bad_unicode(word.Lower_Richmond.strip())\n    word.Middle_Clarence=fix_bad_unicode( word.Middle_Clarence.strip())\n    word.Condamine_Upper_Clarence=fix_bad_unicode(word.Condamine_Upper_Clarence.strip())\n    word.Copmanhurst=fix_bad_unicode(   word.Copmanhurst.strip())\n\n    return word\n\ndef translateunicode():\n    s=None\n    t=None\n    if (request.vars):\n\t    text=request.vars.text_input\n\t    s=unicode(text,\'UTF-8\')\n\t    t=ftfy.fix_text_encoding(s)\n    return dict(string=s, translate=t)\n\ndef  fix_bad_unicode(text):\n    s=unicode(text,"UTF-8")\n    s=ftfy.fix_text_encoding(s)\n    return s\n\ndef search(orderbys, searchterm,typequery, dialect, extra):\n    words=None\n    if extra=="Exact":\n    \tif typequery=="English":\n    \t\tquery=(dblanguage.Bundjalung.Search_English==searchterm)|dblanguage.Bundjalung.Search_English.startswith(searchterm+\' ;\')|(dblanguage.Bundjalung.Search_English.contains("; "+searchterm ))|(dblanguage.Bundjalung.Search_English.endswith("; "+searchterm))\n    \telse:\n                query= dblanguage.Bundjalung.Language_Word==searchterm\n    else:\n\t if typequery=="English":\n\t\tquery= dblanguage.Bundjalung.Search_English.contains(searchterm)\n\t else:\n\t        query= dblanguage.Bundjalung.Language_Word.contains(searchterm)\n    if dialect!="All":\n\tif dialect=="Middle Clarence":\n\t\tquery=query&(dblanguage.Bundjalung.Middle_Clarence!="")\n\telif dialect=="Condamine Upper Clarence":\n\t\t query=query&(dblanguage.Bundjalung.Condamine_Upper__Clarence!="")\n\telif dialect=="Lower Richmond":\n\t\t query=query&(dblanguage.Bundjalung.Lower_Richmond!="")\n\telif dialect=="Gold Coast Tweed":\n\t\t query=query&(dblanguage.Bundjalung.Gold_Coast_Tweed!="")\n\telse:\t\n\t\tquery=query&(dblanguage.Bundjalung.Copmanhurst!="")\n    words=dblanguage(query).select(orderby=orderbys)\n    return words\n\n\ndef lesson():\n    import json\n    wordlist=[]\n    name=request.args[0]\n    words=dblanguage(dblanguage.Bundjalung.Lesson==name).select()\n    rows = [word for word in words]\n    #cols = [word for word in words.description]\n    for row in rows:\n    \tword_json=row.__dict__\n  \twordlist.append(word_json)\n\n    return dict(wordlist=wordlist)\n\n@auth.requires_login()\ndef dictionary():\n    names = db(db.dialect.id>0).select(db.dialect.name)\n    numerics=[]\n    dialectid=None\n    alphanumeric=""\n    sort=request.vars[\'type\']\n    if request.args:\n        order=request.args[0]\n    else:\n\torder=sort\n    orderbys=dblanguage.Bundjalung.Search_English\n    if order==language:\n                orderbys=dblanguage.Bundjalung.Language_Word\n    elif order==\'Category\':\n                orderbys=dblanguage.Bundjalung.Category\n\n    searchterms=request.vars[\'query\']\n    if searchterms=="None":\n    \tsearchterms=""\n    try:\n\talphanumeric=request.vars[\'numeric\']\n    \tdialectid=request.vars[\'dialect\']\n    except:\n\tpass\n    exact=alphanumeric \n    dialect=""\n    if dialectid: \n\tdialectRow=db.dialect(name=dialectid)\n    \tif dialectRow: dialect=dialectRow.name\n    if searchterms and searchterms!="":\n        response.start=False\t\n\twordlist =search(orderbys,searchterms,sort,dialect,alphanumeric)\n\tnumerics=[\'Exact\',\'Related\']\n\texact="Exact"\t\n\tif wordlist==[]:\n\t\texact="Related"\n\t\twordlist =search(orderbys, searchterms,sort,dialect,\'Related\')\n    else:\n    \twordlist=[]\n    \tif (not(sort)):\n \t\tsort="English"\n\tif (not alphanumeric):\n\t\talphanumeric=\'A\'\n    \tif(sort==\'English\'):\n\t\tnumerics=[\'A\',\'B\',\'C\',\'D\',\'E\',\'F\',\'G\',\'H\',\'I\',\'J\',\'K\',\'L\',\'M\',\'N\',\'O\',\'P\',\'Q\',\'R\',\'S\',\'T\',\'U\',\'V\',\'W\',\'X\',\'Y\',\'Z\']\n\t\tcondition = dblanguage.Bundjalung.Search_English.startswith(alphanumeric.lower())|dblanguage.Bundjalung.Search_English.startswith(\'-\'+alphanumeric.lower())\n\n\t        wordlist=dblanguage(condition).select(orderby=orderbys)\n    \telse:\n\t\tnumerics=[\'A\',\'BA\',\'BE\',\'BI\', \'BU\',\'D\',\'J\',\'L\',\'M\',\'N\',\'NG\',\'NY\',\'O\',\'S\',\'WA\', \'WE\', \'WI\', \'WU\',\'YA\',\'YE\',\'Yi\',\'YU\']\n\t\tcondition = dblanguage.Bundjalung.Language_Word.startswith(alphanumeric.lower())|dblanguage.Bundjalung.Language_Word.startswith(\'-\'+alphanumeric.lower())\n\t\tif alphanumeric==\'N\':\n\t\t\tc2= (dblanguage.Bundjalung.Language_Word.startswith("na"))\n\t\t\tc3=(dblanguage.Bundjalung.Language_Word.startswith("ne"))\n\t\t\tc4=(dblanguage.Bundjalung.Language_Word.startswith("ni"))\n\t\t\tc5= (dblanguage.Bundjalung.Language_Word.startswith("nu"))\n        \t\twordlist=dblanguage(c2|c3|c4|c5).select(dblanguage.Bundjalung.ALL, orderby=orderbys)\n\t\t\twl2=dblanguage(c3).select(dblanguage.Bundjalung.ALL, orderby=orderbys)\n\t \telse:\n\t\t\twordlist=dblanguage(condition).select(orderby=orderbys)\n    for word in wordlist:\n\tread_word(word)\n    if order==\'Dialect\':\n\t#this is so cool\n\twordlist=sorted(wordlist,key= lambda word: word[\'dialect\'])\t\t\n    top_message = language +" Dictionary"\n    w = db.plugin_wiki_page\n    page = w(slug=\'usedictionary\')    \n    if page: pageteaser=page.summary\n    else: pageteaser=""\n    return dict(start=response.start, page=pageteaser, dialect= dialect, sort=sort, exact=exact, names=names, query=searchterms, words=wordlist, top_message=top_message, numeric= alphanumeric, numerics=numerics)\n\n\ndef wordlist():\n  \tresults= dictionary()\n\tresults[\'start\']=False\t\n\treturn results\n\n\ndef dictionarysort():\n    sort=request.args(0)\n    if(sort==None):sort=\'English\'\n    wordlist=dblanguage(dblanguage.Bundjalung.Category==sort).select(dblanguage.Bundjalung.ALL, orderby=dblanguage.Bundjalung.Language_Word)\n    for word in wordlist:\n        read_word(word)\n    top_message = language +" List sorted for "+sort\n    return dict(words=wordlist, top_message=top_message)\n\n\ndef view_word():\n    word_id=request.args(0)\n    words=dblanguage.Bundjalung\n    word, examples=read_word(dblanguage.Bundjalung(dblanguage.Bundjalung.id==word_id))\n    word=fix_word(word)\n\n    link = URL(r=request, c=\'language\' ,f=\'edit_word\', args=word_id)\n    return dict(link = link, word=word, exampleSentences=examples, language=language )\n\ndef view_word_popup():\n    word_id=request.args(0)\n    words=dblanguage.Bundjalung\n    word,examples =read_word(dblanguage.Bundjalung(dblanguage.Bundjalung.id==word_id))\n    word=fix_word(word)\n    link = URL(r=request, c=\'language\' ,f=\'edit_word\', args=word_id)\n    return dict(link = link, word=word)\n\n\ndef translate():\n    word = request.args(0) or \'\'\n    if not request.args:\n        redirect(URL(r=request, c=\'language\' ,f=\'index\'))\n    lang= request.args(1)\n\n    if lang==\'English\':\n\twords=(languagewords.id>0)(languagewords.Search_English==word).select( orderby=languagewords.language)\n    elif not lang: \n\tlang=language\n\twords=(languagewords.id>0)(languagewords.language==word).select( orderby=languagewords.Search_English)\n\t\n    return  dict(words=words)\n\ndef category():\n\n    word = request.args(0) or \'\'\n    if not request.args:\n        redirect(URL(r=request, c=\'language\' ,f=\'index\'))\n    category= request.args(1)\n\n    words=(languagewords.id>0)(languagewords.Category==category).select( orderby=languagewords.language)\n\n    return  dict(words=words)\n\n@auth.requires_login()\ndef create_word():\n    if not request.args:\n        redirect(URL(r=request,c=\'language\', f=\'index\'))\n    create_word = request.args(0)\n    name=create_word.replace(\'_\',\' \')\n\n    word=languageword(Search_English==name)\n    form = crud.create(dblanguageword)\n    return dict(word=word, form=form)\n\n    \n# edit clws\n@auth.requires_login()\ndef edit_word():\n    word_id=request.args(0)\n    try:\n        integer=True\n        word_id=int(word_id)\n    except :\n        integer=False\n\tword_id=0\n    try:\n \tname=word_id.replace(\'_\',\' \')\n    except: \n\tname=""\n    w = dblanguage.Bundjalung\n    if integer:\n\tword = w(id=word_id)\n    else:\n\tword = w(Language_Word=name)\n    if not word:\n        word = w.insert(Language_Word=name)\n    word, examples =read_word(word)\n    if word: \n\tword_id=word.id\n    \tif auth.has_membership(auth.id_group(\'developer\')):\n\n\t    form = crud.update(w, word, deletable=True, onaccept=crud.archive,\n                       next=URL(r=request,c=\'language\', f=\'view_word\',args=word_id))\n    \telse:\n            form = crud.update(w, word, deletable=False, onaccept=crud.archive,\n                       next=URL(r=request,c=\'language\', f=\'view_word\',args=word_id))\n    return dict(form=form,word=word,examples=examples)\n\ndef read_word(word):\n\tword.Sound=word.SoundFile\t\n\tif (not word.SoundFile or word.SoundFile==\'\'or word.SoundFile==" "): \n\t\t\n\t\tparts= word.Language_Word.split(\',\')\n\t\tword.Sound=parts[0]+".mp3"\n\t\t#word.Sound=word.Language_Word+".mp3"\n        \tif(os.path.exists(\'applications/\'+language+\'/uploads/media/sounds/\'+word.Sound)):\n\t    \t\tword.Sound = URL(r=request, c=\'default\',f=\'sounds\', args=word.Sound)\n        \telse:\n\t   \t\tif (not word.SoundFile or word.SoundFile==\'\'): \n\t\t\t\tword.Sound=parts[0]+".wav"\n           \t\tif(os.path.exists(\'applications/\'+language+\'/uploads/media/sounds/\'+word.Sound)):\n\t\t\t\tword.Sound = URL(r=request, c=\'default\',f=\'sounds\', args=word.Sound)\n\t   \t\telse: word.Sound=None\n\tword.Image=word.Image.strip()\n\tword.ImageLink=word.Image\n\tif(word.Image==None or word.Image==""):word.Image=word.Search_English\n\tend=string.find(word.Image,\';\');\n\tif end>0:word.Image=word.Image[0:end]\n        word.Image=word.Image.replace(\', \',\'_\')\n\n\tword.Image=word.Image.replace(\' \',\'_\')\n        if(os.path.exists(\'applications/\'+language+\'/uploads/media/images/\'+word.Image+\'.gif\')):\n                word.ImageLink = URL(r=request, c=\'default\',f=\'images\', args=word.Image+\'.gif\')\n        else: word.ImageLink=""\n        if(word.ImageLink==""):\n                if(os.path.exists(\'applications/\'+language+\'/uploads/media/images/\'+word.Image+\'.jpg\')):\n\t\t\tword.ImageLink = URL(r=request, c=\'default\',f=\'images\', args=word.Image+\'.gif\')\n                else: word.Image=""\n\tcondition = dblanguage.BundjalungExamples.language_id==word.id\n        examplelist=dblanguage(condition).select(dblanguage.BundjalungExamples.ALL)\n\tword.dialect=""\n\tcolour="black"\n\tif word.Gold_Coast_Tweed.strip() !="":\n\t\tword.dialect+="Gold Coast Tweed, "\n\tif word.Lower_Richmond.strip()!="":\n\t\tword.dialect+="Lower Richmond, "\n\n        if word.Middle_Clarence.strip()!="":\n                word.dialect+="Middle Clarence, "\n\n        if word.Condamine_Upper_Clarence.strip()!="":\n                word.dialect+="Condamine Upper Clarence, "\n\n        if word.Copmanhurst.strip()!="":\n                word.dialect+="Copmanhurst "\n#remove \',\'\n\tword.dialect = word.dialect.strip()[:-1]\n\tif word.dialect.strip()=="": word.dialect="All"\n# if only one dialect\n \tif word.dialect!="" and word.dialect.find(\',\')<0:\n\t\tcolour=db(db.dialect.name==word.dialect).select()\n\t\tif colour: word.color=colour[0].color\n\t\telse: word.color=\'black\'\n\telse:\n\t\tword.color=\'black\'\n        return word, examplelist\n\n\nresponse._vars=response._caller(view_word)\n'
p7
sS'snapshot'
p8
(dp9
S'exception'
p10
(dp11
S'__hash__'
p12
S"<method-wrapper '__hash__' of exceptions.AttributeError object>"
p13
sS'__setattr__'
p14
S"<method-wrapper '__setattr__' of exceptions.AttributeError object>"
p15
sS'__reduce_ex__'
p16
S'<built-in method __reduce_ex__ of exceptions.AttributeError object>'
p17
sS'__getslice__'
p18
S"<method-wrapper '__getslice__' of exceptions.AttributeError object>"
p19
sS'__getitem__'
p20
S"<method-wrapper '__getitem__' of exceptions.AttributeError object>"
p21
sS'__setstate__'
p22
S'<built-in method __setstate__ of exceptions.AttributeError object>'
p23
sS'args'
p24
S'("\'NoneType\' object has no attribute \'SoundFile\'",)'
p25
sS'__reduce__'
p26
S'<built-in method __reduce__ of exceptions.AttributeError object>'
p27
sS'__str__'
p28
S"<method-wrapper '__str__' of exceptions.AttributeError object>"
p29
sS'__format__'
p30
S'<built-in method __format__ of exceptions.AttributeError object>'
p31
sS'__getattribute__'
p32
S"<method-wrapper '__getattribute__' of exceptions.AttributeError object>"
p33
sS'__class__'
p34
S"<type 'exceptions.AttributeError'>"
p35
sS'__unicode__'
p36
S'<built-in method __unicode__ of exceptions.AttributeError object>'
p37
sS'__delattr__'
p38
S"<method-wrapper '__delattr__' of exceptions.AttributeError object>"
p39
sS'__subclasshook__'
p40
S'<built-in method __subclasshook__ of type object>'
p41
sS'__repr__'
p42
S"<method-wrapper '__repr__' of exceptions.AttributeError object>"
p43
sS'__dict__'
p44
S'{}'
p45
sS'__sizeof__'
p46
S'<built-in method __sizeof__ of exceptions.AttributeError object>'
p47
sS'__doc__'
p48
S"'Attribute not found.'"
p49
sS'__init__'
p50
S"<method-wrapper '__init__' of exceptions.AttributeError object>"
p51
sS'__new__'
p52
S'<built-in method __new__ of type object>'
p53
ssS'evalue'
p54
S"'NoneType' object has no attribute 'SoundFile'"
p55
sS'request'
p56
cgluon.html
XML_unpickle
p57
(S'sW[\x00\x00<div><table><tr><td style="font-weight:bold;vertical-align:top;">ajax</td><td style="vertical-align:top;">:</td><td><div>False</div></td></tr><tr><td style="font-weight:bold;vertical-align:top;">application</td><td style="vertical-align:top;">:</td><td><div>Bundjalung</div></td></tr><tr><td style="font-weight:bold;vertical-align:top;">args</td><td style="vertical-align:top;">:</td><td><div><table></table></div></td></tr><tr><td style="font-weight:bold;vertical-align:top;">cid</td><td style="vertical-align:top;">:</td><td><div>None</div></td></tr><tr><td style="font-weight:bold;vertical-align:top;">client</td><td style="vertical-align:top;">:</td><td><div>180.76.15.156</div></td></tr><tr><td style="font-weight:bold;vertical-align:top;">controller</td><td style="vertical-align:top;">:</td><td><div>language</div></td></tr><tr><td style="font-weight:bold;vertical-align:top;">cookies</td><td style="vertical-align:top;">:</td><td><div><table></table></div></td></tr><tr><td style="font-weight:bold;vertical-align:top;">env</td><td style="vertical-align:top;">:</td><td><div><table><tr><td style="font-weight:bold;vertical-align:top;">CONTEXT_DOCUMENT_ROOT</td><td style="vertical-align:top;">:</td><td><div>/home/Language/</div></td></tr><tr><td style="font-weight:bold;vertical-align:top;">CONTEXT_PREFIX</td><td style="vertical-align:top;">:</td><td><div></div></td></tr><tr><td style="font-weight:bold;vertical-align:top;">DOCUMENT_ROOT</td><td style="vertical-align:top;">:</td><td><div>/home/Language/</div></td></tr><tr><td style="font-weight:bold;vertical-align:top;">GATEWAY_INTERFACE</td><td style="vertical-align:top;">:</td><td><div>CGI/1.1</div></td></tr><tr><td style="font-weight:bold;vertical-align:top;">HTTP_ACCEPT</td><td style="vertical-align:top;">:</td><td><div>*/*</div></td></tr><tr><td style="font-weight:bold;vertical-align:top;">HTTP_ACCEPT_ENCODING</td><td style="vertical-align:top;">:</td><td><div>gzip</div></td></tr><tr><td style="font-weight:bold;vertical-align:top;">HTTP_ACCEPT_LANGUAGE</td><td style="vertical-align:top;">:</td><td><div>en-US</div></td></tr><tr><td style="font-weight:bold;vertical-align:top;">HTTP_CONNECTION</td><td style="vertical-align:top;">:</td><td><div>close</div></td></tr><tr><td style="font-weight:bold;vertical-align:top;">HTTP_HOST</td><td style="vertical-align:top;">:</td><td><div>www.bundjalung.dalang.com.au</div></td></tr><tr><td style="font-weight:bold;vertical-align:top;">HTTP_USER_AGENT</td><td style="vertical-align:top;">:</td><td><div>Mozilla/5.0 (compatible; Baiduspider/2.0; +http://www.baidu.com/search/spider.html)</div></td></tr><tr><td style="font-weight:bold;vertical-align:top;">PATH_INFO</td><td style="vertical-align:top;">:</td><td><div>/language/view_word/</div></td></tr><tr><td style="font-weight:bold;vertical-align:top;">PATH_TRANSLATED</td><td style="vertical-align:top;">:</td><td><div>/usr/local/web2py/wsgihandler.py/language/view_word/</div></td></tr><tr><td style="font-weight:bold;vertical-align:top;">QUERY_STRING</td><td style="vertical-align:top;">:</td><td><div></div></td></tr><tr><td style="font-weight:bold;vertical-align:top;">REMOTE_ADDR</td><td style="vertical-align:top;">:</td><td><div>180.76.15.156</div></td></tr><tr><td style="font-weight:bold;vertical-align:top;">REMOTE_PORT</td><td style="vertical-align:top;">:</td><td><div>34303</div></td></tr><tr><td style="font-weight:bold;vertical-align:top;">REQUEST_METHOD</td><td style="vertical-align:top;">:</td><td><div>GET</div></td></tr><tr><td style="font-weight:bold;vertical-align:top;">REQUEST_SCHEME</td><td style="vertical-align:top;">:</td><td><div>http</div></td></tr><tr><td style="font-weight:bold;vertical-align:top;">REQUEST_URI</td><td style="vertical-align:top;">:</td><td><div>/language/view_word/</div></td></tr><tr><td style="font-weight:bold;vertical-align:top;">SCRIPT_FILENAME</td><td style="vertical-align:top;">:</td><td><div>/usr/local/web2py/wsgihandler.py</div></td></tr><tr><td style="font-weight:bold;vertical-align:top;">SCRIPT_NAME</td><td style="vertical-align:top;">:</td><td><div></div></td></tr><tr><td style="font-weight:bold;vertical-align:top;">SERVER_ADDR</td><td style="vertical-align:top;">:</td><td><div>129.94.172.214</div></td></tr><tr><td style="font-weight:bold;vertical-align:top;">SERVER_ADMIN</td><td style="vertical-align:top;">:</td><td><div>cat.kutay@gmail.com</div></td></tr><tr><td style="font-weight:bold;vertical-align:top;">SERVER_NAME</td><td style="vertical-align:top;">:</td><td><div>www.bundjalung.dalang.com.au</div></td></tr><tr><td style="font-weight:bold;vertical-align:top;">SERVER_PORT</td><td style="vertical-align:top;">:</td><td><div>80</div></td></tr><tr><td style="font-weight:bold;vertical-align:top;">SERVER_PROTOCOL</td><td style="vertical-align:top;">:</td><td><div>HTTP/1.1</div></td></tr><tr><td style="font-weight:bold;vertical-align:top;">SERVER_SIGNATURE</td><td style="vertical-align:top;">:</td><td><div>&lt;address&gt;Apache/2.4.7 (Ubuntu) Server at www.bundjalung.dalang.com.au Port 80&lt;/address&gt;\n</div></td></tr><tr><td style="font-weight:bold;vertical-align:top;">SERVER_SOFTWARE</td><td style="vertical-align:top;">:</td><td><div>Apache/2.4.7 (Ubuntu)</div></td></tr><tr><td style="font-weight:bold;vertical-align:top;">app_folders</td><td style="vertical-align:top;">:</td><td><div>set([&#x27;/usr/local/web2py/applications/Dharug/&#x27;, &#x27;/usr/local/web2py/applications/Language/&#x27;, &#x27;/usr/local/web2py/applications/admin/&#x27;, &#x27;/usr/local/web2py/applications/Bundjalung/&#x27;, &#x27;/usr/local/web2py/applications/kinship/&#x27;, &#x27;/usr/local/web2py/applications/Wiradjuri/&#x27;])</div></td></tr><tr><td style="font-weight:bold;vertical-align:top;">applications_parent</td><td style="vertical-align:top;">:</td><td><div>/usr/local/web2py</div></td></tr><tr><td style="font-weight:bold;vertical-align:top;">context_document_root</td><td style="vertical-align:top;">:</td><td><div>/home/Language/</div></td></tr><tr><td style="font-weight:bold;vertical-align:top;">context_prefix</td><td style="vertical-align:top;">:</td><td><div></div></td></tr><tr><td style="font-weight:bold;vertical-align:top;">db_sessions</td><td style="vertical-align:top;">:</td><td><div>set([&#x27;Bundjalung&#x27;, &#x27;kinship&#x27;, &#x27;Language&#x27;, &#x27;Dharug&#x27;])</div></td></tr><tr><td style="font-weight:bold;vertical-align:top;">debugging</td><td style="vertical-align:top;">:</td><td><div>False</div></td></tr><tr><td style="font-weight:bold;vertical-align:top;">document_root</td><td style="vertical-align:top;">:</td><td><div>/home/Language/</div></td></tr><tr><td style="font-weight:bold;vertical-align:top;">domain_application</td><td style="vertical-align:top;">:</td><td><div>Bundjalung</div></td></tr><tr><td style="font-weight:bold;vertical-align:top;">domain_controller</td><td style="vertical-align:top;">:</td><td><div>None</div></td></tr><tr><td style="font-weight:bold;vertical-align:top;">domain_function</td><td style="vertical-align:top;">:</td><td><div>None</div></td></tr><tr><td style="font-weight:bold;vertical-align:top;">gateway_interface</td><td style="vertical-align:top;">:</td><td><div>CGI/1.1</div></td></tr><tr><td style="font-weight:bold;vertical-align:top;">gluon_parent</td><td style="vertical-align:top;">:</td><td><div>/usr/local/web2py</div></td></tr><tr><td style="font-weight:bold;vertical-align:top;">http_accept</td><td style="vertical-align:top;">:</td><td><div>*/*</div></td></tr><tr><td style="font-weight:bold;vertical-align:top;">http_accept_encoding</td><td style="vertical-align:top;">:</td><td><div>gzip</div></td></tr><tr><td style="font-weight:bold;vertical-align:top;">http_accept_language</td><td style="vertical-align:top;">:</td><td><div>en-US</div></td></tr><tr><td style="font-weight:bold;vertical-align:top;">http_connection</td><td style="vertical-align:top;">:</td><td><div>close</div></td></tr><tr><td style="font-weight:bold;vertical-align:top;">http_host</td><td style="vertical-align:top;">:</td><td><div>www.bundjalung.dalang.com.au</div></td></tr><tr><td style="font-weight:bold;vertical-align:top;">http_user_agent</td><td style="vertical-align:top;">:</td><td><div>Mozilla/5.0 (compatible; Baiduspider/2.0; +http://www.baidu.com/search/spider.html)</div></td></tr><tr><td style="font-weight:bold;vertical-align:top;">is_jython</td><td style="vertical-align:top;">:</td><td><div>False</div></td></tr><tr><td style="font-weight:bold;vertical-align:top;">is_pypy</td><td style="vertical-align:top;">:</td><td><div>False</div></td></tr><tr><td style="font-weight:bold;vertical-align:top;">is_source</td><td style="vertical-align:top;">:</td><td><div>True</div></td></tr><tr><td style="font-weight:bold;vertical-align:top;">local_hosts</td><td style="vertical-align:top;">:</td><td><div><table><tr><td><div>www.bundjalung.dalang.com.au</div></td></tr><tr><td><div>129.94.172.214</div></td></tr><tr><td><div>::ffff:127.0.0.1</div></td></tr><tr><td><div>::1</div></td></tr><tr><td><div>mindalgali</div></td></tr><tr><td><div>127.0.1.1</div></td></tr><tr><td><div>mindalgali.cse.unsw.EDU.AU</div></td></tr><tr><td><div>127.0.0.1</div></td></tr></table></div></td></tr><tr><td style="font-weight:bold;vertical-align:top;">mod_wsgi.application_group</td><td style="vertical-align:top;">:</td><td><div>dalang.com.au|</div></td></tr><tr><td style="font-weight:bold;vertical-align:top;">mod_wsgi.callable_object</td><td style="vertical-align:top;">:</td><td><div>application</div></td></tr><tr><td style="font-weight:bold;vertical-align:top;">mod_wsgi.enable_sendfile</td><td style="vertical-align:top;">:</td><td><div>0</div></td></tr><tr><td style="font-weight:bold;vertical-align:top;">mod_wsgi.handler_script</td><td style="vertical-align:top;">:</td><td><div></div></td></tr><tr><td style="font-weight:bold;vertical-align:top;">mod_wsgi.input_chunked</td><td style="vertical-align:top;">:</td><td><div>0</div></td></tr><tr><td style="font-weight:bold;vertical-align:top;">mod_wsgi.listener_host</td><td style="vertical-align:top;">:</td><td><div></div></td></tr><tr><td style="font-weight:bold;vertical-align:top;">mod_wsgi.listener_port</td><td style="vertical-align:top;">:</td><td><div>80</div></td></tr><tr><td style="font-weight:bold;vertical-align:top;">mod_wsgi.process_group</td><td style="vertical-align:top;">:</td><td><div>web2py</div></td></tr><tr><td style="font-weight:bold;vertical-align:top;">mod_wsgi.queue_start</td><td style="vertical-align:top;">:</td><td><div>1439055367839889</div></td></tr><tr><td style="font-weight:bold;vertical-align:top;">mod_wsgi.request_handler</td><td style="vertical-align:top;">:</td><td><div>wsgi-script</div></td></tr><tr><td style="font-weight:bold;vertical-align:top;">mod_wsgi.script_reloading</td><td style="vertical-align:top;">:</td><td><div>1</div></td></tr><tr><td style="font-weight:bold;vertical-align:top;">mod_wsgi.version</td><td style="vertical-align:top;">:</td><td><div><table><tr><td><div>3</div></td></tr><tr><td><div>4</div></td></tr></table></div></td></tr><tr><td style="font-weight:bold;vertical-align:top;">mod_wsgi_application_group</td><td style="vertical-align:top;">:</td><td><div>dalang.com.au|</div></td></tr><tr><td style="font-weight:bold;vertical-align:top;">mod_wsgi_callable_object</td><td style="vertical-align:top;">:</td><td><div>application</div></td></tr><tr><td style="font-weight:bold;vertical-align:top;">mod_wsgi_enable_sendfile</td><td style="vertical-align:top;">:</td><td><div>0</div></td></tr><tr><td style="font-weight:bold;vertical-align:top;">mod_wsgi_handler_script</td><td style="vertical-align:top;">:</td><td><div></div></td></tr><tr><td style="font-weight:bold;vertical-align:top;">mod_wsgi_input_chunked</td><td style="vertical-align:top;">:</td><td><div>0</div></td></tr><tr><td style="font-weight:bold;vertical-align:top;">mod_wsgi_listener_host</td><td style="vertical-align:top;">:</td><td><div></div></td></tr><tr><td style="font-weight:bold;vertical-align:top;">mod_wsgi_listener_port</td><td style="vertical-align:top;">:</td><td><div>80</div></td></tr><tr><td style="font-weight:bold;vertical-align:top;">mod_wsgi_process_group</td><td style="vertical-align:top;">:</td><td><div>web2py</div></td></tr><tr><td style="font-weight:bold;vertical-align:top;">mod_wsgi_queue_start</td><td style="vertical-align:top;">:</td><td><div>1439055367839889</div></td></tr><tr><td style="font-weight:bold;vertical-align:top;">mod_wsgi_request_handler</td><td style="vertical-align:top;">:</td><td><div>wsgi-script</div></td></tr><tr><td style="font-weight:bold;vertical-align:top;">mod_wsgi_script_reloading</td><td style="vertical-align:top;">:</td><td><div>1</div></td></tr><tr><td style="font-weight:bold;vertical-align:top;">mod_wsgi_version</td><td style="vertical-align:top;">:</td><td><div><table><tr><td><div>3</div></td></tr><tr><td><div>4</div></td></tr></table></div></td></tr><tr><td style="font-weight:bold;vertical-align:top;">path_info</td><td style="vertical-align:top;">:</td><td><div>/language/view_word/</div></td></tr><tr><td style="font-weight:bold;vertical-align:top;">path_translated</td><td style="vertical-align:top;">:</td><td><div>/usr/local/web2py/wsgihandler.py/language/view_word/</div></td></tr><tr><td style="font-weight:bold;vertical-align:top;">query_string</td><td style="vertical-align:top;">:</td><td><div></div></td></tr><tr><td style="font-weight:bold;vertical-align:top;">remote_addr</td><td style="vertical-align:top;">:</td><td><div>180.76.15.156</div></td></tr><tr><td style="font-weight:bold;vertical-align:top;">remote_port</td><td style="vertical-align:top;">:</td><td><div>34303</div></td></tr><tr><td style="font-weight:bold;vertical-align:top;">request_method</td><td style="vertical-align:top;">:</td><td><div>GET</div></td></tr><tr><td style="font-weight:bold;vertical-align:top;">request_scheme</td><td style="vertical-align:top;">:</td><td><div>http</div></td></tr><tr><td style="font-weight:bold;vertical-align:top;">request_uri</td><td style="vertical-align:top;">:</td><td><div>/Bundjalung/language/view_word</div></td></tr><tr><td style="font-weight:bold;vertical-align:top;">script_filename</td><td style="vertical-align:top;">:</td><td><div>/usr/local/web2py/wsgihandler.py</div></td></tr><tr><td style="font-weight:bold;vertical-align:top;">script_name</td><td style="vertical-align:top;">:</td><td><div></div></td></tr><tr><td style="font-weight:bold;vertical-align:top;">server_addr</td><td style="vertical-align:top;">:</td><td><div>129.94.172.214</div></td></tr><tr><td style="font-weight:bold;vertical-align:top;">server_admin</td><td style="vertical-align:top;">:</td><td><div>cat.kutay@gmail.com</div></td></tr><tr><td style="font-weight:bold;vertical-align:top;">server_name</td><td style="vertical-align:top;">:</td><td><div>www.bundjalung.dalang.com.au</div></td></tr><tr><td style="font-weight:bold;vertical-align:top;">server_port</td><td style="vertical-align:top;">:</td><td><div>80</div></td></tr><tr><td style="font-weight:bold;vertical-align:top;">server_protocol</td><td style="vertical-align:top;">:</td><td><div>HTTP/1.1</div></td></tr><tr><td style="font-weight:bold;vertical-align:top;">server_signature</td><td style="vertical-align:top;">:</td><td><div>&lt;address&gt;Apache/2.4.7 (Ubuntu) Server at www.bundjalung.dalang.com.au Port 80&lt;/address&gt;\n</div></td></tr><tr><td style="font-weight:bold;vertical-align:top;">server_software</td><td style="vertical-align:top;">:</td><td><div>Apache/2.4.7 (Ubuntu)</div></td></tr><tr><td style="font-weight:bold;vertical-align:top;">web2py_crontype</td><td style="vertical-align:top;">:</td><td><div>soft</div></td></tr><tr><td style="font-weight:bold;vertical-align:top;">web2py_original_uri</td><td style="vertical-align:top;">:</td><td><div>/language/view_word/</div></td></tr><tr><td style="font-weight:bold;vertical-align:top;">web2py_path</td><td style="vertical-align:top;">:</td><td><div>/usr/local/web2py</div></td></tr><tr><td style="font-weight:bold;vertical-align:top;">web2py_version</td><td style="vertical-align:top;">:</td><td><div>2.9.12-stable+timestamp.2015.01.17.06.11.03</div></td></tr><tr><td style="font-weight:bold;vertical-align:top;">wsgi.errors</td><td style="vertical-align:top;">:</td><td><div>&lt;mod_wsgi.Log object at 0x7f266a5d0730&gt;</div></td></tr><tr><td style="font-weight:bold;vertical-align:top;">wsgi.file_wrapper</td><td style="vertical-align:top;">:</td><td><div>&lt;built-in method file_wrapper of mod_wsgi.Adapter object at 0x7f266aa02b70&gt;</div></td></tr><tr><td style="font-weight:bold;vertical-align:top;">wsgi.input</td><td style="vertical-align:top;">:</td><td><div>&lt;mod_wsgi.Input object at 0x7f266a5d0770&gt;</div></td></tr><tr><td style="font-weight:bold;vertical-align:top;">wsgi.multiprocess</td><td style="vertical-align:top;">:</td><td><div>True</div></td></tr><tr><td style="font-weight:bold;vertical-align:top;">wsgi.multithread</td><td style="vertical-align:top;">:</td><td><div>True</div></td></tr><tr><td style="font-weight:bold;vertical-align:top;">wsgi.run_once</td><td style="vertical-align:top;">:</td><td><div>False</div></td></tr><tr><td style="font-weight:bold;vertical-align:top;">wsgi.url_scheme</td><td style="vertical-align:top;">:</td><td><div>http</div></td></tr><tr><td style="font-weight:bold;vertical-align:top;">wsgi.version</td><td style="vertical-align:top;">:</td><td><div><table><tr><td><div>1</div></td></tr><tr><td><div>0</div></td></tr></table></div></td></tr><tr><td style="font-weight:bold;vertical-align:top;">wsgi_errors</td><td style="vertical-align:top;">:</td><td><div>&lt;mod_wsgi.Log object at 0x7f266a5d0730&gt;</div></td></tr><tr><td style="font-weight:bold;vertical-align:top;">wsgi_file_wrapper</td><td style="vertical-align:top;">:</td><td><div>&lt;built-in method file_wrapper of mod_wsgi.Adapter object at 0x7f266aa02b70&gt;</div></td></tr><tr><td style="font-weight:bold;vertical-align:top;">wsgi_input</td><td style="vertical-align:top;">:</td><td><div>&lt;mod_wsgi.Input object at 0x7f266a5d0770&gt;</div></td></tr><tr><td style="font-weight:bold;vertical-align:top;">wsgi_multiprocess</td><td style="vertical-align:top;">:</td><td><div>True</div></td></tr><tr><td style="font-weight:bold;vertical-align:top;">wsgi_multithread</td><td style="vertical-align:top;">:</td><td><div>True</div></td></tr><tr><td style="font-weight:bold;vertical-align:top;">wsgi_run_once</td><td style="vertical-align:top;">:</td><td><div>False</div></td></tr><tr><td style="font-weight:bold;vertical-align:top;">wsgi_url_scheme</td><td style="vertical-align:top;">:</td><td><div>http</div></td></tr><tr><td style="font-weight:bold;vertical-align:top;">wsgi_version</td><td style="vertical-align:top;">:</td><td><div><table><tr><td><div>1</div></td></tr><tr><td><div>0</div></td></tr></table></div></td></tr></table></div></td></tr><tr><td style="font-weight:bold;vertical-align:top;">extension</td><td style="vertical-align:top;">:</td><td><div>html</div></td></tr><tr><td style="font-weight:bold;vertical-align:top;">folder</td><td style="vertical-align:top;">:</td><td><div>/usr/local/web2py/applications/Bundjalung/</div></td></tr><tr><td style="font-weight:bold;vertical-align:top;">function</td><td style="vertical-align:top;">:</td><td><div>view_word</div></td></tr><tr><td style="font-weight:bold;vertical-align:top;">global_settings</td><td style="vertical-align:top;">:</td><td><div><table><tr><td style="font-weight:bold;vertical-align:top;">app_folders</td><td style="vertical-align:top;">:</td><td><div>set([&#x27;/usr/local/web2py/applications/Dharug/&#x27;, &#x27;/usr/local/web2py/applications/Language/&#x27;, &#x27;/usr/local/web2py/applications/admin/&#x27;, &#x27;/usr/local/web2py/applications/Bundjalung/&#x27;, &#x27;/usr/local/web2py/applications/kinship/&#x27;, &#x27;/usr/local/web2py/applications/Wiradjuri/&#x27;])</div></td></tr><tr><td style="font-weight:bold;vertical-align:top;">applications_parent</td><td style="vertical-align:top;">:</td><td><div>/usr/local/web2py</div></td></tr><tr><td style="font-weight:bold;vertical-align:top;">db_sessions</td><td style="vertical-align:top;">:</td><td><div>set([&#x27;Bundjalung&#x27;, &#x27;kinship&#x27;, &#x27;Language&#x27;, &#x27;Dharug&#x27;])</div></td></tr><tr><td style="font-weight:bold;vertical-align:top;">debugging</td><td style="vertical-align:top;">:</td><td><div>False</div></td></tr><tr><td style="font-weight:bold;vertical-align:top;">gluon_parent</td><td style="vertical-align:top;">:</td><td><div>/usr/local/web2py</div></td></tr><tr><td style="font-weight:bold;vertical-align:top;">is_jython</td><td style="vertical-align:top;">:</td><td><div>False</div></td></tr><tr><td style="font-weight:bold;vertical-align:top;">is_pypy</td><td style="vertical-align:top;">:</td><td><div>False</div></td></tr><tr><td style="font-weight:bold;vertical-align:top;">is_source</td><td style="vertical-align:top;">:</td><td><div>True</div></td></tr><tr><td style="font-weight:bold;vertical-align:top;">local_hosts</td><td style="vertical-align:top;">:</td><td><div><table><tr><td><div>www.bundjalung.dalang.com.au</div></td></tr><tr><td><div>129.94.172.214</div></td></tr><tr><td><div>::ffff:127.0.0.1</div></td></tr><tr><td><div>::1</div></td></tr><tr><td><div>mindalgali</div></td></tr><tr><td><div>127.0.1.1</div></td></tr><tr><td><div>mindalgali.cse.unsw.EDU.AU</div></td></tr><tr><td><div>127.0.0.1</div></td></tr></table></div></td></tr><tr><td style="font-weight:bold;vertical-align:top;">web2py_crontype</td><td style="vertical-align:top;">:</td><td><div>soft</div></td></tr><tr><td style="font-weight:bold;vertical-align:top;">web2py_version</td><td style="vertical-align:top;">:</td><td><div>2.9.12-stable+timestamp.2015.01.17.06.11.03</div></td></tr></table></div></td></tr><tr><td style="font-weight:bold;vertical-align:top;">is_https</td><td style="vertical-align:top;">:</td><td><div>False</div></td></tr><tr><td style="font-weight:bold;vertical-align:top;">is_local</td><td style="vertical-align:top;">:</td><td><div>False</div></td></tr><tr><td style="font-weight:bold;vertical-align:top;">is_restful</td><td style="vertical-align:top;">:</td><td><div>False</div></td></tr><tr><td style="font-weight:bold;vertical-align:top;">is_sheduler</td><td style="vertical-align:top;">:</td><td><div>None</div></td></tr><tr><td style="font-weight:bold;vertical-align:top;">is_shell</td><td style="vertical-align:top;">:</td><td><div>None</div></td></tr><tr><td style="font-weight:bold;vertical-align:top;">now</td><td style="vertical-align:top;">:</td><td><div>datetime.datetime(2015, 8, 9, 3, 36, 7, 840400)</div></td></tr><tr><td style="font-weight:bold;vertical-align:top;">url</td><td style="vertical-align:top;">:</td><td><div>/language/view_word/</div></td></tr><tr><td style="font-weight:bold;vertical-align:top;">utcnow</td><td style="vertical-align:top;">:</td><td><div>datetime.datetime(2015, 8, 8, 17, 36, 7, 840417)</div></td></tr><tr><td style="font-weight:bold;vertical-align:top;">uuid</td><td style="vertical-align:top;">:</td><td><div>Bundjalung/180.76.15.156.2015-08-09.03-36-07.99c4ce89-740a-407f-a5a6-a64d9ab2e307</div></td></tr><tr><td style="font-weight:bold;vertical-align:top;">wsgi</td><td style="vertical-align:top;">:</td><td><div>&lt;gluon.main.LazyWSGI object at 0x7f266a5d0a50&gt;</div></td></tr></table></div>'
tRp58
sS'frames'
p59
(lp60
(dp61
S'file'
p62
S'/usr/local/web2py/gluon/restricted.py'
p63
sS'dump'
p64
(dp65
S'environment'
p66
S"{'A': <class 'gluon.html.A'>, 'ANY_OF': <class 'gluon.validators.ANY_OF'>, 'ASSIGNJS': <function ASSIGNJS>, 'Auth': <class 'gluon.tools.Auth'>, 'B': <class 'gluon.html.B'>, 'BEAUTIFY': <class 'gluon.html.BEAUTIFY'>, 'BODY': <class 'gluon.html.BODY'>, 'BR': <class 'gluon.html.BR'>, 'BUTTON': <class 'gluon.html.BUTTON'>, 'CAT': <class 'gluon.html.CAT'>, ...}"
p67
sS'ccode'
p68
S'<code object <module> at 0x7f266a970e30, file "/...ions/Bundjalung/controllers/language.py", line 1>'
p69
ssS'lnum'
p70
I224
sS'lines'
p71
(dp72
I224
S'        exec ccode in environment'
p73
sI225
S'    except HTTP:'
p74
sI226
S'        raise'
p75
sI227
S'    except RestrictedError:'
p76
sI228
S'        # do not encapsulate (obfuscate) the original RestrictedError'
p77
sI219
S'    try:'
p78
sI220
S'        if isinstance(code, types.CodeType):'
p79
sI221
S'            ccode = code'
p80
sI222
S'        else:'
p81
sI223
S'            ccode = compile2(code, layer)'
p82
ssS'call'
p83
S"(code='import string\\n\\n# NOte the existence of languageL...ist\\n\\n\\nresponse._vars=response._caller(view_word)\\n', environment={'A': <class 'gluon.html.A'>, 'ANY_OF': <class 'gluon.validators.ANY_OF'>, 'ASSIGNJS': <function ASSIGNJS>, 'Auth': <class 'gluon.tools.Auth'>, 'B': <class 'gluon.html.B'>, 'BEAUTIFY': <class 'gluon.html.BEAUTIFY'>, 'BODY': <class 'gluon.html.BODY'>, 'BR': <class 'gluon.html.BR'>, 'BUTTON': <class 'gluon.html.BUTTON'>, 'CAT': <class 'gluon.html.CAT'>, ...}, layer='/usr/local/web2py/applications/Bundjalung/controllers/language.py')"
p84
sS'func'
p85
S'restricted'
p86
sa(dp87
g62
S'/usr/local/web2py/applications/Bundjalung/controllers/language.py'
p88
sg64
(dp89
sg70
I320
sg71
(dp90
I309
S'\tif word.dialect.strip()=="": word.dialect="All"'
p91
sI310
S'# if only one dialect'
p92
sI311
S' \tif word.dialect!="" and word.dialect.find(\',\')<0:'
p93
sI312
S'\t\tcolour=db(db.dialect.name==word.dialect).select()'
p94
sI313
S'\t\tif colour: word.color=colour[0].color'
p95
sI314
S"\t\telse: word.color='black'"
p96
sI315
S'\telse:'
p97
sI316
S"\t\tword.color='black'"
p98
sI317
S'        return word, examplelist'
p99
sI318
S''
ssg83
S'()'
p100
sg85
S'<module>'
p101
sa(dp102
g62
S'/usr/local/web2py/gluon/globals.py'
p103
sg64
(dp104
S'self'
p105
S'undefined'
p106
sS'f'
S'<function view_word>'
p107
ssg70
I393
sg71
(dp108
I388
S"        self.flash = ''            # used by the default view layout"
p109
sI389
S'        self.meta = Storage()      # used by web2py_ajax.html'
p110
sI390
S'        self.menu = []             # used by the default view layout'
p111
sI391
S'        self.files = []            # used by web2py_ajax.html'
p112
sI392
S'        self._vars = None'
p113
sI393
S'        self._caller = lambda f: f()'
p114
sI394
S'        self._view_environment = None'
p115
sI395
S'        self._custom_commit = None'
p116
sI396
S'        self._custom_rollback = None'
p117
sI397
S"        self.generic_patterns = ['*']"
p118
ssg83
S'(f=<function view_word>)'
p119
sg85
S'<lambda>'
p120
sa(dp121
g62
S'/usr/local/web2py/applications/Bundjalung/controllers/language.py'
p122
sg64
(dp123
S'word'
p124
g106
sS'global dblanguage'
p125
S'<DAL uri="mysql:******@localhost/language">'
p126
sS'dblanguage.Bundjalung'
p127
S'<Table Bundjalung (id,Category,Language_Word,Par...,Copmanhurst,RelatedWord,Image,SoundFile,Lesson)>'
p128
sS'global read_word'
p129
S'<function read_word>'
p130
sS'examples'
p131
g106
sS'dblanguage.Bundjalung.id'
p132
S'<gluon.dal.objects.Field object>'
p133
sS'word_id'
p134
S'None'
p135
ssg70
I175
sg71
(dp136
I170
S''
sI171
S''
sI172
S'def view_word():'
p137
sI173
S'    word_id=request.args(0)'
p138
sI174
S'    words=dblanguage.Bundjalung'
p139
sI175
S'    word, examples=read_word(dblanguage.Bundjalung(dblanguage.Bundjalung.id==word_id))'
p140
sI176
S'    word=fix_word(word)'
p141
sI177
S''
sI178
S"    link = URL(r=request, c='language' ,f='edit_word', args=word_id)"
p142
sI179
S'    return dict(link = link, word=word, exampleSentences=examples, language=language )'
p143
ssg83
S'()'
p144
sg85
S'view_word'
p145
sa(dp146
g62
S'/usr/local/web2py/applications/Bundjalung/controllers/language.py'
p147
sg64
(dp148
S'word.Sound'
p149
g106
sS'word.SoundFile'
p150
g106
sS'word'
p151
S'None'
p152
ssg70
I261
sg71
(dp153
I256
S'            form = crud.update(w, word, deletable=False, onaccept=crud.archive,'
p154
sI257
S"                       next=URL(r=request,c='language', f='view_word',args=word_id))"
p155
sI258
S'    return dict(form=form,word=word,examples=examples)'
p156
sI259
S''
sI260
S'def read_word(word):'
p157
sI261
S'\tword.Sound=word.SoundFile'
p158
sI262
S'\tif (not word.SoundFile or word.SoundFile==\'\'or word.SoundFile==" "):'
p159
sI263
S''
sI264
S"\t\tparts= word.Language_Word.split(',')"
p160
sI265
S'\t\tword.Sound=parts[0]+".mp3"'
p161
ssg83
S'(word=None)'
p162
sg85
S'read_word'
p163
sasS'pyver'
p164
S'Python 2.7.6: /usr/bin/python (prefix: /usr)'
p165
sS'session'
p166
g57
(S's\x1a\x00\x00\x00<div><table></table></div>'
tRp167
sS'etype'
p168
S"<type 'exceptions.AttributeError'>"
p169
sS'date'
p170
S'Sun Aug  9 03:36:07 2015'
p171
sS'response'
p172
g57
(S's\x95(\x00\x00<div><table><tr><td style="font-weight:bold;vertical-align:top;">body</td><td style="vertical-align:top;">:</td><td><div>&lt;cStringIO.StringO object at 0x7f2681035a78&gt;</div></td></tr><tr><td style="font-weight:bold;vertical-align:top;">cookies</td><td style="vertical-align:top;">:</td><td><div><table></table></div></td></tr><tr><td style="font-weight:bold;vertical-align:top;">delimiters</td><td style="vertical-align:top;">:</td><td><div><table><tr><td><div>{{</div></td></tr><tr><td><div>}}</div></td></tr></table></div></td></tr><tr><td style="font-weight:bold;vertical-align:top;">files</td><td style="vertical-align:top;">:</td><td><div><table><tr><td><div>/Bundjalung/static/plugin_multiselect/jquery.dimensions.js</div></td></tr><tr><td><div>/Bundjalung/static/plugin_multiselect/jquery.multiselect.js</div></td></tr><tr><td><div>/Bundjalung/static/plugin_multiselect/jquery.multiselect.css</div></td></tr></table></div></td></tr><tr><td style="font-weight:bold;vertical-align:top;">flash</td><td style="vertical-align:top;">:</td><td><div></div></td></tr><tr><td style="font-weight:bold;vertical-align:top;">form_label_separator</td><td style="vertical-align:top;">:</td><td><div>: </div></td></tr><tr><td style="font-weight:bold;vertical-align:top;">formstyle</td><td style="vertical-align:top;">:</td><td><div>table3cols</div></td></tr><tr><td style="font-weight:bold;vertical-align:top;">generic_patterns</td><td style="vertical-align:top;">:</td><td><div><table><tr><td><div>*</div></td></tr></table></div></td></tr><tr><td style="font-weight:bold;vertical-align:top;">headers</td><td style="vertical-align:top;">:</td><td><div><table><tr><td style="font-weight:bold;vertical-align:top;">X-Powered-By</td><td style="vertical-align:top;">:</td><td><div>web2py</div></td></tr></table></div></td></tr><tr><td style="font-weight:bold;vertical-align:top;">menu</td><td style="vertical-align:top;">:</td><td><div><table></table></div></td></tr><tr><td style="font-weight:bold;vertical-align:top;">menuAbout</td><td style="vertical-align:top;">:</td><td><div><table><tr><td><div><table><tr><td><div>People</div></td></tr><tr><td><div>False</div></td></tr><tr><td><div>/plugin_wiki/page/people</div></td></tr></table></div></td></tr><tr><td><div><table><tr><td><div>Traditional country</div></td></tr><tr><td><div>False</div></td></tr><tr><td><div>/plugin_wiki/page/traditional_country</div></td></tr></table></div></td></tr><tr><td><div><table><tr><td><div>Language background</div></td></tr><tr><td><div>False</div></td></tr><tr><td><div>/plugin_wiki/page/language_background</div></td></tr></table></div></td></tr><tr><td><div><table><tr><td><div>Outline of the language</div></td></tr><tr><td><div>False</div></td></tr><tr><td><div>/plugin_wiki/page/outline_of_the_language</div></td></tr></table></div></td></tr><tr><td><div><table><tr><td><div>Outline of resources</div></td></tr><tr><td><div>False</div></td></tr><tr><td><div>/plugin_wiki/page/outline_of_resources</div></td></tr></table></div></td></tr><tr><td><div><table><tr><td><div>History of the project</div></td></tr><tr><td><div>False</div></td></tr><tr><td><div>/plugin_wiki/page/history</div></td></tr></table></div></td></tr></table></div></td></tr><tr><td style="font-weight:bold;vertical-align:top;">menuLogin</td><td style="vertical-align:top;">:</td><td><div><table><tr><td><div><table><tr><td><div>Login</div></td></tr><tr><td><div>False</div></td></tr><tr><td><div>/_user/login</div></td></tr></table></div></td></tr></table></div></td></tr><tr><td style="font-weight:bold;vertical-align:top;">menuResource</td><td style="vertical-align:top;">:</td><td><div><table><tr><td><div><table><tr><td><div>Dictionary Book</div></td></tr><tr><td><div>False</div></td></tr><tr><td><div>/plugin_wiki/page/dictionary</div></td></tr></table></div></td></tr><tr><td><div><table><tr><td><div>Language Resources</div></td></tr><tr><td><div>False</div></td></tr><tr><td><div>/plugin_wiki/resources</div></td></tr></table></div></td></tr><tr><td><div><table><tr><td><div>Written examples</div></td></tr><tr><td><div>False</div></td></tr><tr><td><div>/plugin_wiki/page/written_examples_of_the_language</div></td></tr></table></div></td></tr><tr><td><div><table><tr><td><div>Work Sheets</div></td></tr><tr><td><div>False</div></td></tr><tr><td><div>/learning/pages</div></td></tr></table></div></td></tr></table></div></td></tr><tr><td style="font-weight:bold;vertical-align:top;">menuTop</td><td style="vertical-align:top;">:</td><td><div><table><tr><td><div><table><tr><td><div>Home</div></td></tr><tr><td><div>False</div></td></tr><tr><td><div>/plugin_wiki/index.html</div></td></tr></table></div></td></tr><tr><td><div><table><tr><td><div>About Us</div></td></tr><tr><td><div>False</div></td></tr><tr><td><div>/plugin_wiki/page/about_us</div></td></tr></table></div></td></tr><tr><td><div><table><tr><td><div>Dictionary</div></td></tr><tr><td><div>False</div></td></tr><tr><td><div>/language/dictionary</div></td></tr></table></div></td></tr><tr><td><div><table><tr><td><div>Resources</div></td></tr><tr><td><div>False</div></td></tr><tr><td><div>/plugin_wiki/resources</div></td></tr></table></div></td></tr><tr><td><div><table><tr><td><div>Contact</div></td></tr><tr><td><div>False</div></td></tr><tr><td><div>/plugin_wiki/contact</div></td></tr></table></div></td></tr></table></div></td></tr><tr><td style="font-weight:bold;vertical-align:top;">menu_edit</td><td style="vertical-align:top;">:</td><td><div><table><tr><td><div><table><tr><td><div>Edit</div></td></tr><tr><td><div>False</div></td></tr><tr><td><div>/admin/design/Bundjalung</div></td></tr><tr><td><div><table><tr><td><div><table><tr><td><div>Controller</div></td></tr><tr><td><div>False</div></td></tr><tr><td><div>/admin/edit/Bundjalung/controllers/default.py</div></td></tr></table></div></td></tr><tr><td><div><table><tr><td><div>View</div></td></tr><tr><td><div>False</div></td></tr><tr><td><div>/admin/edit/Bundjalung/views/language/view_word.html</div></td></tr></table></div></td></tr><tr><td><div><table><tr><td><div>Layout</div></td></tr><tr><td><div>False</div></td></tr><tr><td><div>/admin/edit/Bundjalung/views/layout.html</div></td></tr></table></div></td></tr><tr><td><div><table><tr><td><div>Stylesheet</div></td></tr><tr><td><div>False</div></td></tr><tr><td><div>/admin/edit/Bundjalung/static/base.css</div></td></tr></table></div></td></tr><tr><td><div><table><tr><td><div>DB Model</div></td></tr><tr><td><div>False</div></td></tr><tr><td><div>/admin/edit/Bundjalung/models/db.py</div></td></tr></table></div></td></tr><tr><td><div><table><tr><td><div>Menu Model</div></td></tr><tr><td><div>False</div></td></tr><tr><td><div>/admin/edit/Bundjalung/models/menu.py</div></td></tr></table></div></td></tr><tr><td><div><table><tr><td><div>Database</div></td></tr><tr><td><div>False</div></td></tr><tr><td><div>/appadmin</div></td></tr></table></div></td></tr></table></div></td></tr></table></div></td></tr></table></div></td></tr><tr><td style="font-weight:bold;vertical-align:top;">menu_spread</td><td style="vertical-align:top;">:</td><td><div><table><tr><td><div><table><tr><td><div>Index</div></td></tr><tr><td><div>False</div></td></tr><tr><td><div>/plugin_spreadsheet</div></td></tr><tr><td><div><table></table></div></td></tr></table></div></td></tr></table></div></td></tr><tr><td style="font-weight:bold;vertical-align:top;">meta</td><td style="vertical-align:top;">:</td><td><div><table></table></div></td></tr><tr><td style="font-weight:bold;vertical-align:top;">models_to_run</td><td style="vertical-align:top;">:</td><td><div><table><tr><td><div>^\\w+\\.py$</div></td></tr><tr><td><div>^language/\\w+\\.py$</div></td></tr><tr><td><div>^language/view_word/\\w+\\.py$</div></td></tr></table></div></td></tr><tr><td style="font-weight:bold;vertical-align:top;">postprocessing</td><td style="vertical-align:top;">:</td><td><div><table></table></div></td></tr><tr><td style="font-weight:bold;vertical-align:top;">session_client</td><td style="vertical-align:top;">:</td><td><div>180.76.15.156</div></td></tr><tr><td style="font-weight:bold;vertical-align:top;">session_cookie_compression_level</td><td style="vertical-align:top;">:</td><td><div>None</div></td></tr><tr><td style="font-weight:bold;vertical-align:top;">session_cookie_expires</td><td style="vertical-align:top;">:</td><td><div>None</div></td></tr><tr><td style="font-weight:bold;vertical-align:top;">session_cookie_key</td><td style="vertical-align:top;">:</td><td><div>None</div></td></tr><tr><td style="font-weight:bold;vertical-align:top;">session_data_name</td><td style="vertical-align:top;">:</td><td><div>session_data_bundjalung</div></td></tr><tr><td style="font-weight:bold;vertical-align:top;">session_db_table</td><td style="vertical-align:top;">:</td><td><div>&lt;Table web2py_session_Bundjalung (id,locked,client_ip,created_datetime,modified_datetime,unique_key,session_data)&gt;</div></td></tr><tr><td style="font-weight:bold;vertical-align:top;">session_hash</td><td style="vertical-align:top;">:</td><td><div>c0762cbf4baf7f9af97c051e7fcb8083</div></td></tr><tr><td style="font-weight:bold;vertical-align:top;">session_id</td><td style="vertical-align:top;">:</td><td><div>None</div></td></tr><tr><td style="font-weight:bold;vertical-align:top;">session_id_name</td><td style="vertical-align:top;">:</td><td><div>session_id_bundjalung</div></td></tr><tr><td style="font-weight:bold;vertical-align:top;">session_masterapp</td><td style="vertical-align:top;">:</td><td><div>Bundjalung</div></td></tr><tr><td style="font-weight:bold;vertical-align:top;">session_new</td><td style="vertical-align:top;">:</td><td><div>True</div></td></tr><tr><td style="font-weight:bold;vertical-align:top;">session_storage_type</td><td style="vertical-align:top;">:</td><td><div>db</div></td></tr><tr><td style="font-weight:bold;vertical-align:top;">start</td><td style="vertical-align:top;">:</td><td><div>True</div></td></tr><tr><td style="font-weight:bold;vertical-align:top;">status</td><td style="vertical-align:top;">:</td><td><div>200</div></td></tr><tr><td style="font-weight:bold;vertical-align:top;">title</td><td style="vertical-align:top;">:</td><td><div>Bundjalung-Yugambeh Dictionary</div></td></tr><tr><td style="font-weight:bold;vertical-align:top;">view</td><td style="vertical-align:top;">:</td><td><div>language/view_word.html</div></td></tr></table></div>'
tRp173
sS'locals'
p174
(dp175
S'word'
p176
S'None'
p177
sssS'traceback'
p178
S'Traceback (most recent call last):\n  File "/usr/local/web2py/gluon/restricted.py", line 224, in restricted\n    exec ccode in environment\n  File "/usr/local/web2py/applications/Bundjalung/controllers/language.py", line 320, in <module>\n  File "/usr/local/web2py/gluon/globals.py", line 393, in <lambda>\n    self._caller = lambda f: f()\n  File "/usr/local/web2py/applications/Bundjalung/controllers/language.py", line 175, in view_word\n    word, examples=read_word(dblanguage.Bundjalung(dblanguage.Bundjalung.id==word_id))\n  File "/usr/local/web2py/applications/Bundjalung/controllers/language.py", line 261, in read_word\n    word.Sound=word.SoundFile\nAttributeError: \'NoneType\' object has no attribute \'SoundFile\'\n'
p179
s.