(dp1
S'output'
p2
S"<type 'exceptions.TypeError'> expected string or buffer"
p3
sS'layer'
p4
S'/usr/local/web2py/applications/Bundjalung/controllers/learning.py'
p5
sS'code'
p6
S'#################\n#Interface to nltk for languages\n#\n#################\n# -*- coding: utf-8 -*-\n# try something like\n\nimport altk\nfrom altk.dictionary import *\nfrom altk.tagger import *\nfrom altk.stemmer import *\nimport urllib\nimport nltk, re, pprint # NLTK and related modules -- are these all needed?\nfrom nltk.corpus import abc\n\nimport os, sys\nfrom  nltk.tokenize.punkt import PunktSentenceTokenizer\n\n\ndef translate_word(word, lang, ws, wd):\n                reduced_word = ws.stem(word, hide_suffixes = False, show_translation = True, show_pos=True)\n\n                stem = reduced_word[0]\n                translated_stem = translate_stem(stem, lang, wd)\n\n                translated_suffixes = reduced_word[1]\n                # if translated_stem[0]=="": return (translated_stem, translated_suffixes)\n\n                reduced_word_part = ws.stem(translated_stem[0], hide_suffixes = False, show_translation = True)\n\n                translated_stem = translated_stem + translate_stem(reduced_word_part[0],lang, wd)\n                translated_suffixes = translated_suffixes + reduced_word_part[1]\n\n                return (translated_stem, translated_suffixes)\n\ndef translate_stem(stem, lang, wd):\n\n                if lang!="English":\n\t\t\tif wd.has_word(stem):\n\n\t                        return (stem, wd.getEnglish(stem), wd.getPartEng(stem))\n\t\telse:\t\n\t\t\t\n\t\t\tif wd.has_eng_word(stem):\t\t\n\t\t\t\treturn (stem, wd.getLanguage(stem), wd.getPartLang(stem))\n\t\treturn (stem, stem, \'Unknown\')\n\ndef print_words(words):\n                AboriginalLanguage = ""\n                english = ""\n                pos=""\n                for word in words:\n\n                        printed_word = print_word(word)\n\n                        AboriginalLanguage += printed_word[0] +" "\n                        english +=  printed_word[1] +" "\n                        pos+= printed_word[2]+" "\n\n                return [AboriginalLanguage, english, pos]\n\ndef print_word(word):\n    stem = word[0]\n    suffixes = word[1]\n\n    printed_stem = print_stem(stem)\n    AboriginalLanguage = printed_stem[0]\n    english = printed_stem[1]\n    pos=printed_stem[2]\n    for suffix in suffixes:\n        printed_suffix = print_suffix(suffix)\n        AboriginalLanguage +=  printed_suffix[0]\n        english += printed_suffix[1]\n        pos+=printed_suffix[2]\n    return [AboriginalLanguage, english,pos]\n\ndef print_stem(stem):\n\n                AboriginalLanguage = stem[0]\n                english = stem[1]\n                 #create array\n                pos=stem[2]\n                w_length = len(AboriginalLanguage)\n                e_length = len(english)\n\n                length = max(w_length, e_length)\n                AboriginalLanguage = AboriginalLanguage.center(length)\n                english = english.center(length)\n                if pos: pos = pos.center(length)\n                return [AboriginalLanguage, english, pos]\n\ndef print_suffix(suffix):\n                AboriginalLanguage = "-" + suffix[0]\n                english = " " + suffix[1]\n                pos = " "+suffix[2]\n                w_length = len(AboriginalLanguage)\n                e_length = len(english)\n\n                length = max(w_length, e_length)\n                AboriginalLanguage = AboriginalLanguage.center(length)\n                english = english.center(length)\n                pos= pos.center(length)\n                return [AboriginalLanguage, english, pos]\n\n\ndef parser():\n    words=None\n    searchterm=request.vars.query\n    lang=request.vars.lang\n\t#null searches\n    if not(request.vars):\n    \treturn dict(wordlist=True, words=words)\n    elif not(searchterm):\n    \tredirect (URL(r=request,c="language",f="dictionary"))\n\n### add reference to example sentences\n    #wordlist=searchterm.split()\n    #for word in wordlist:\n#\tpass\n    if lang=="English":\n                query= dblanguage.BundjalungExamples.English.like(\'%% %s %%\' % searchterm)\n    else:\n                query= dblanguage.BundjalungExamples.Language.like(\'%% %s %%\' % searchterm)\n    words=dblanguage(query)\n    try:\n\twords=words.select()\n    except:\n\tredirect (URL(r=request,c="language",f="dictionary",vars={\'query\':searchterm, \'lang\':lang}))\n##else load dictionary\n    wd = dictionary.AboriginalLanguageDictionary()\n    ws = stemmer.AboriginalLanguageStemmer()\n\n    if (words):\n\treturn dict(wordlist=False, words=words, query=searchterm)\n    else:\n\t\tnewwords = PunktSentenceTokenizer().tokenize(searchterm)\n\t\twords = []\n\t\n                for word in newwords:\n                \twords+= [translate_word(word, lang, ws, wd)]   \n    \t\tlang=[]\n    \t\tenglish=[]\n    \t\tpos=[]\n    \t\tfor word in words:\n                        printed_word = print_word(word)\n                        lang.append(printed_word[0])\n                        english.append(printed_word[1])\n                        pos.append(printed_word[2])\n\t\tleng=len(lang)\n\n    \t\twords=[lang,english,pos]\n    return dict(wordlist=True, words=words, query=request.vars.query)\n\n\ndef pages():\n    w = db.plugin_wiki_page\n    t=db.plugin_wiki_tag\n    taglist=db(t.id>0).select(orderby=t.id)\n    words=None\n    if plugin_wiki_editor:\n            pages = db(w.worksheet==True).select(orderby=w.title)\n    else:\n                pages = db(w.worksheet==True)(w.is_public==True).select(orderby=w.title)\n\n    if plugin_wiki_editor:\n                form=SQLFORM.factory(Field(\'title\',requires=db.plugin_wiki_page.title.requires),\n                             Field(\'from_template\',requires=IS_EMPTY_OR(IS_IN_DB(db,db.plugin_wiki_page.title))))\n                if form.accepts(request.vars):\n                        title=request.vars.title\n                        page =db(w.title==title).select().first()\n                        if not page:\n                                page = w.insert(slug=title.replace(\' \',\'_\'),\n                                title=title,\n                                body=request.vars.template and w(slug=request.vars.template).body or \'\')\n                        redirect(URL(r=request,f=\'edit_page\',args=form.vars.title,vars=dict(template=request.vars.from_template or \'\')))\n    else:\n                form=\'\'\n    return dict(query=request.vars.query, taglist=taglist, pages=pages, form=form)\n\ndef page():\n    """\n    shows a page\n    """\n    slug= request.args(0)\n    import re\n    if slug=="Index" or slug==None:\n        redirect(URL(r=request, c=\'plugin_wiki\', f=\'index.html\'))\n    if slug=="Admin_Help" and not auth.user:\n        redirect(URL(r=request, c=\'plugin_wiki\', f=\'pages\'))\n\n\n    w = db.plugin_wiki_page\n    page = w(slug=slug)\n    #for template\n    if (not page or not page.is_public or not page.is_active):\n         if plugin_wiki_editor:\n                redirect(URL(r=request, c=\'plugin_wiki\', f=\'edit_page\', args=request.args))\n         if (session):session.flash=T("Page not available")\n\n         redirect(URL(r=request, c=\'plugin_wiki\', f=\'pages\'))\n    elif page and page.role and not auth.has_membership(page.role):\n        raise HTTP(404)\n        # parse pages. First History\n    if page.worksheet:\n        page.questions=[]\n    page.attachments=[]\n    a=db.plugin_wiki_attachment\n    query = (a.tablename=="page")&(a.record_id==page.id)\n    page.attachments=db(query).select()\n    page_body=page.body\n    if (page.worksheet):\n\tpage_body = wsread_page(page)\n\t#   page=wsread_question(page_body, page)\n    else:\n\tpage_body=page.body\n    title=page.title\n\n    return dict(form="", title=page.title, page=page, page_body=page_body, slug=slug)\n\ndef list():\n    page_id=request.args(0)\n    wl=wordlist(page_id)\n    if wl: words=wl[\'words\'];\n    else: wl=None\n    return dict(words=words, page_id=page_id)\n\n\n\n@auth.requires_login()\ndef edit_page():\n    """\n    edit a page\n    """\n    slug = request.args(0) or \'Index\'\n    tags=""\n    if request.args(1): tags=\'|\'+request.args(1)+\'|\'\n    slug=slug.replace(\' \',\'_\')\n    w = db.plugin_wiki_page\n    w.role.writable = w.role.readable = plugin_wiki_level>1\n    page = w(slug=slug)\n    """\n    db.plugin_wiki_page.tag.default=""\n    db.plugin_wiki_page.update.tags=db.plugin_wiki_page.tags\n    """\n    if not page:\n        db.plugin_wiki_page.tags.default=tags\n\n        page = w.insert(slug=slug,\n                        title=slug.replace(\'_\',\' \'),\n                        tags=tags,\n                        body=request.vars.template and w(slug=request.vars.template).body or \'\')\n    else:\n        tags = page.tags #in practice \'xyz\' would be a variable\n    if page.title=="Index":\n        form = crud.update(w, page, deletable=True, onaccept=crud.archive,\n                       next=URL(r=request, c=\'plugin_wiki\', f=\'index\'))\n    else:\n                form = crud.update(w, page, deletable=True, onaccept=crud.archive,\n                next=URL(r=request,c=\'learning\', f=\'page\',args=slug))\n\n    return dict(form=form,page=page,tags=tags)\n\n\nresponse._vars=response._caller(parser)\n'
p7
sS'snapshot'
p8
(dp9
S'exception'
p10
(dp11
S'__hash__'
p12
S"<method-wrapper '__hash__' of exceptions.TypeError object>"
p13
sS'__setattr__'
p14
S"<method-wrapper '__setattr__' of exceptions.TypeError object>"
p15
sS'__reduce_ex__'
p16
S'<built-in method __reduce_ex__ of exceptions.TypeError object>'
p17
sS'__getslice__'
p18
S"<method-wrapper '__getslice__' of exceptions.TypeError object>"
p19
sS'__getitem__'
p20
S"<method-wrapper '__getitem__' of exceptions.TypeError object>"
p21
sS'__setstate__'
p22
S'<built-in method __setstate__ of exceptions.TypeError object>'
p23
sS'args'
p24
S"('expected string or buffer',)"
p25
sS'__reduce__'
p26
S'<built-in method __reduce__ of exceptions.TypeError object>'
p27
sS'__str__'
p28
S"<method-wrapper '__str__' of exceptions.TypeError object>"
p29
sS'__format__'
p30
S'<built-in method __format__ of exceptions.TypeError object>'
p31
sS'__getattribute__'
p32
S"<method-wrapper '__getattribute__' of exceptions.TypeError object>"
p33
sS'__class__'
p34
S"<type 'exceptions.TypeError'>"
p35
sS'__unicode__'
p36
S'<built-in method __unicode__ of exceptions.TypeError object>'
p37
sS'__delattr__'
p38
S"<method-wrapper '__delattr__' of exceptions.TypeError object>"
p39
sS'__subclasshook__'
p40
S'<built-in method __subclasshook__ of type object>'
p41
sS'__repr__'
p42
S"<method-wrapper '__repr__' of exceptions.TypeError object>"
p43
sS'__dict__'
p44
S'{}'
p45
sS'__sizeof__'
p46
S'<built-in method __sizeof__ of exceptions.TypeError object>'
p47
sS'__doc__'
p48
S"'Inappropriate argument type.'"
p49
sS'__init__'
p50
S"<method-wrapper '__init__' of exceptions.TypeError object>"
p51
sS'__new__'
p52
S'<built-in method __new__ of type object>'
p53
ssS'evalue'
p54
S'expected string or buffer'
p55
sS'request'
p56
cgluon.html
XML_unpickle
p57
(S'sMn\x00\x00<div><table><tr><td style="font-weight:bold;vertical-align:top;">ajax</td><td style="vertical-align:top;">:</td><td><div>True</div></td></tr><tr><td style="font-weight:bold;vertical-align:top;">application</td><td style="vertical-align:top;">:</td><td><div>Bundjalung</div></td></tr><tr><td style="font-weight:bold;vertical-align:top;">args</td><td style="vertical-align:top;">:</td><td><div><table></table></div></td></tr><tr><td style="font-weight:bold;vertical-align:top;">cid</td><td style="vertical-align:top;">:</td><td><div>None</div></td></tr><tr><td style="font-weight:bold;vertical-align:top;">client</td><td style="vertical-align:top;">:</td><td><div>58.173.119.87</div></td></tr><tr><td style="font-weight:bold;vertical-align:top;">controller</td><td style="vertical-align:top;">:</td><td><div>learning</div></td></tr><tr><td style="font-weight:bold;vertical-align:top;">cookies</td><td style="vertical-align:top;">:</td><td><div><table><tr><td style="font-weight:bold;vertical-align:top;">session_id_admin</td><td style="vertical-align:top;">:</td><td><div>58.173.119.87-cd3a3ae8-7719-4ec9-9a73-cefbb032b659<table><tr><td style="font-weight:bold;vertical-align:top;">comment</td><td style="vertical-align:top;">:</td><td><div></div></td></tr><tr><td style="font-weight:bold;vertical-align:top;">domain</td><td style="vertical-align:top;">:</td><td><div></div></td></tr><tr><td style="font-weight:bold;vertical-align:top;">expires</td><td style="vertical-align:top;">:</td><td><div></div></td></tr><tr><td style="font-weight:bold;vertical-align:top;">httponly</td><td style="vertical-align:top;">:</td><td><div></div></td></tr><tr><td style="font-weight:bold;vertical-align:top;">max-age</td><td style="vertical-align:top;">:</td><td><div></div></td></tr><tr><td style="font-weight:bold;vertical-align:top;">path</td><td style="vertical-align:top;">:</td><td><div></div></td></tr><tr><td style="font-weight:bold;vertical-align:top;">secure</td><td style="vertical-align:top;">:</td><td><div></div></td></tr><tr><td style="font-weight:bold;vertical-align:top;">version</td><td style="vertical-align:top;">:</td><td><div></div></td></tr></table></div></td></tr><tr><td style="font-weight:bold;vertical-align:top;">session_id_bundjalung</td><td style="vertical-align:top;">:</td><td><div>35109:59f9b294-42ea-4f08-8b54-09638865e004<table><tr><td style="font-weight:bold;vertical-align:top;">comment</td><td style="vertical-align:top;">:</td><td><div></div></td></tr><tr><td style="font-weight:bold;vertical-align:top;">domain</td><td style="vertical-align:top;">:</td><td><div></div></td></tr><tr><td style="font-weight:bold;vertical-align:top;">expires</td><td style="vertical-align:top;">:</td><td><div></div></td></tr><tr><td style="font-weight:bold;vertical-align:top;">httponly</td><td style="vertical-align:top;">:</td><td><div></div></td></tr><tr><td style="font-weight:bold;vertical-align:top;">max-age</td><td style="vertical-align:top;">:</td><td><div></div></td></tr><tr><td style="font-weight:bold;vertical-align:top;">path</td><td style="vertical-align:top;">:</td><td><div></div></td></tr><tr><td style="font-weight:bold;vertical-align:top;">secure</td><td style="vertical-align:top;">:</td><td><div></div></td></tr><tr><td style="font-weight:bold;vertical-align:top;">version</td><td style="vertical-align:top;">:</td><td><div></div></td></tr></table></div></td></tr></table></div></td></tr><tr><td style="font-weight:bold;vertical-align:top;">env</td><td style="vertical-align:top;">:</td><td><div><table><tr><td style="font-weight:bold;vertical-align:top;">CONTENT_LENGTH</td><td style="vertical-align:top;">:</td><td><div>45</div></td></tr><tr><td style="font-weight:bold;vertical-align:top;">CONTENT_TYPE</td><td style="vertical-align:top;">:</td><td><div>application/x-www-form-urlencoded; charset=UTF-8</div></td></tr><tr><td style="font-weight:bold;vertical-align:top;">CONTEXT_DOCUMENT_ROOT</td><td style="vertical-align:top;">:</td><td><div>/home/Language/</div></td></tr><tr><td style="font-weight:bold;vertical-align:top;">CONTEXT_PREFIX</td><td style="vertical-align:top;">:</td><td><div></div></td></tr><tr><td style="font-weight:bold;vertical-align:top;">DOCUMENT_ROOT</td><td style="vertical-align:top;">:</td><td><div>/home/Language/</div></td></tr><tr><td style="font-weight:bold;vertical-align:top;">GATEWAY_INTERFACE</td><td style="vertical-align:top;">:</td><td><div>CGI/1.1</div></td></tr><tr><td style="font-weight:bold;vertical-align:top;">HTTP_ACCEPT</td><td style="vertical-align:top;">:</td><td><div>*/*</div></td></tr><tr><td style="font-weight:bold;vertical-align:top;">HTTP_ACCEPT_ENCODING</td><td style="vertical-align:top;">:</td><td><div>gzip, deflate</div></td></tr><tr><td style="font-weight:bold;vertical-align:top;">HTTP_ACCEPT_LANGUAGE</td><td style="vertical-align:top;">:</td><td><div>en-US,en;q=0.8,es;q=0.6</div></td></tr><tr><td style="font-weight:bold;vertical-align:top;">HTTP_CONNECTION</td><td style="vertical-align:top;">:</td><td><div>keep-alive</div></td></tr><tr><td style="font-weight:bold;vertical-align:top;">HTTP_COOKIE</td><td style="vertical-align:top;">:</td><td><div>session_id_admin=58.173.119.87-cd3a3ae8-7719-4ec9-9a73-cefbb032b659; session_id_bundjalung=&quot;35109:59f9b294-42ea-4f08-8b54-09638865e004&quot;</div></td></tr><tr><td style="font-weight:bold;vertical-align:top;">HTTP_HOST</td><td style="vertical-align:top;">:</td><td><div>bundjalung.dalang.com.au</div></td></tr><tr><td style="font-weight:bold;vertical-align:top;">HTTP_ORIGIN</td><td style="vertical-align:top;">:</td><td><div>http://bundjalung.dalang.com.au</div></td></tr><tr><td style="font-weight:bold;vertical-align:top;">HTTP_REFERER</td><td style="vertical-align:top;">:</td><td><div>http://bundjalung.dalang.com.au/learning/page/BundjalungWahlubal_using_pictures_for_language_learning</div></td></tr><tr><td style="font-weight:bold;vertical-align:top;">HTTP_USER_AGENT</td><td style="vertical-align:top;">:</td><td><div>Mozilla/5.0 (Macintosh; Intel Mac OS X 10_10_4) AppleWebKit/537.36 (KHTML, like Gecko) Chrome/43.0.2357.134 Safari/537.36</div></td></tr><tr><td style="font-weight:bold;vertical-align:top;">HTTP_X_REQUESTED_WITH</td><td style="vertical-align:top;">:</td><td><div>XMLHttpRequest</div></td></tr><tr><td style="font-weight:bold;vertical-align:top;">PATH_INFO</td><td style="vertical-align:top;">:</td><td><div>/learning/parser.load</div></td></tr><tr><td style="font-weight:bold;vertical-align:top;">PATH_TRANSLATED</td><td style="vertical-align:top;">:</td><td><div>/usr/local/web2py/wsgihandler.py/learning/parser.load</div></td></tr><tr><td style="font-weight:bold;vertical-align:top;">QUERY_STRING</td><td style="vertical-align:top;">:</td><td><div></div></td></tr><tr><td style="font-weight:bold;vertical-align:top;">REMOTE_ADDR</td><td style="vertical-align:top;">:</td><td><div>58.173.119.87</div></td></tr><tr><td style="font-weight:bold;vertical-align:top;">REMOTE_PORT</td><td style="vertical-align:top;">:</td><td><div>34406</div></td></tr><tr><td style="font-weight:bold;vertical-align:top;">REQUEST_METHOD</td><td style="vertical-align:top;">:</td><td><div>POST</div></td></tr><tr><td style="font-weight:bold;vertical-align:top;">REQUEST_SCHEME</td><td style="vertical-align:top;">:</td><td><div>http</div></td></tr><tr><td style="font-weight:bold;vertical-align:top;">REQUEST_URI</td><td style="vertical-align:top;">:</td><td><div>/learning/parser.load</div></td></tr><tr><td style="font-weight:bold;vertical-align:top;">SCRIPT_FILENAME</td><td style="vertical-align:top;">:</td><td><div>/usr/local/web2py/wsgihandler.py</div></td></tr><tr><td style="font-weight:bold;vertical-align:top;">SCRIPT_NAME</td><td style="vertical-align:top;">:</td><td><div></div></td></tr><tr><td style="font-weight:bold;vertical-align:top;">SERVER_ADDR</td><td style="vertical-align:top;">:</td><td><div>129.94.172.214</div></td></tr><tr><td style="font-weight:bold;vertical-align:top;">SERVER_ADMIN</td><td style="vertical-align:top;">:</td><td><div>cat.kutay@gmail.com</div></td></tr><tr><td style="font-weight:bold;vertical-align:top;">SERVER_NAME</td><td style="vertical-align:top;">:</td><td><div>bundjalung.dalang.com.au</div></td></tr><tr><td style="font-weight:bold;vertical-align:top;">SERVER_PORT</td><td style="vertical-align:top;">:</td><td><div>80</div></td></tr><tr><td style="font-weight:bold;vertical-align:top;">SERVER_PROTOCOL</td><td style="vertical-align:top;">:</td><td><div>HTTP/1.1</div></td></tr><tr><td style="font-weight:bold;vertical-align:top;">SERVER_SIGNATURE</td><td style="vertical-align:top;">:</td><td><div>&lt;address&gt;Apache/2.4.7 (Ubuntu) Server at bundjalung.dalang.com.au Port 80&lt;/address&gt;\n</div></td></tr><tr><td style="font-weight:bold;vertical-align:top;">SERVER_SOFTWARE</td><td style="vertical-align:top;">:</td><td><div>Apache/2.4.7 (Ubuntu)</div></td></tr><tr><td style="font-weight:bold;vertical-align:top;">app_folders</td><td style="vertical-align:top;">:</td><td><div>set([&#x27;/usr/local/web2py/applications/Dharug/&#x27;, &#x27;/usr/local/web2py/applications/Language/&#x27;, &#x27;/usr/local/web2py/applications/admin/&#x27;, &#x27;/usr/local/web2py/applications/Bundjalung/&#x27;, &#x27;/usr/local/web2py/applications/kinship/&#x27;, &#x27;/usr/local/web2py/applications/Wiradjuri/&#x27;])</div></td></tr><tr><td style="font-weight:bold;vertical-align:top;">applications_parent</td><td style="vertical-align:top;">:</td><td><div>/usr/local/web2py</div></td></tr><tr><td style="font-weight:bold;vertical-align:top;">content_length</td><td style="vertical-align:top;">:</td><td><div>45</div></td></tr><tr><td style="font-weight:bold;vertical-align:top;">content_type</td><td style="vertical-align:top;">:</td><td><div>application/x-www-form-urlencoded; charset=UTF-8</div></td></tr><tr><td style="font-weight:bold;vertical-align:top;">context_document_root</td><td style="vertical-align:top;">:</td><td><div>/home/Language/</div></td></tr><tr><td style="font-weight:bold;vertical-align:top;">context_prefix</td><td style="vertical-align:top;">:</td><td><div></div></td></tr><tr><td style="font-weight:bold;vertical-align:top;">db_sessions</td><td style="vertical-align:top;">:</td><td><div>set([&#x27;Bundjalung&#x27;, &#x27;kinship&#x27;, &#x27;Language&#x27;, &#x27;Dharug&#x27;])</div></td></tr><tr><td style="font-weight:bold;vertical-align:top;">debugging</td><td style="vertical-align:top;">:</td><td><div>False</div></td></tr><tr><td style="font-weight:bold;vertical-align:top;">document_root</td><td style="vertical-align:top;">:</td><td><div>/home/Language/</div></td></tr><tr><td style="font-weight:bold;vertical-align:top;">domain_application</td><td style="vertical-align:top;">:</td><td><div>Bundjalung</div></td></tr><tr><td style="font-weight:bold;vertical-align:top;">domain_controller</td><td style="vertical-align:top;">:</td><td><div>None</div></td></tr><tr><td style="font-weight:bold;vertical-align:top;">domain_function</td><td style="vertical-align:top;">:</td><td><div>None</div></td></tr><tr><td style="font-weight:bold;vertical-align:top;">gateway_interface</td><td style="vertical-align:top;">:</td><td><div>CGI/1.1</div></td></tr><tr><td style="font-weight:bold;vertical-align:top;">gluon_parent</td><td style="vertical-align:top;">:</td><td><div>/usr/local/web2py</div></td></tr><tr><td style="font-weight:bold;vertical-align:top;">http_accept</td><td style="vertical-align:top;">:</td><td><div>*/*</div></td></tr><tr><td style="font-weight:bold;vertical-align:top;">http_accept_encoding</td><td style="vertical-align:top;">:</td><td><div>gzip, deflate</div></td></tr><tr><td style="font-weight:bold;vertical-align:top;">http_accept_language</td><td style="vertical-align:top;">:</td><td><div>en-US,en;q=0.8,es;q=0.6</div></td></tr><tr><td style="font-weight:bold;vertical-align:top;">http_connection</td><td style="vertical-align:top;">:</td><td><div>keep-alive</div></td></tr><tr><td style="font-weight:bold;vertical-align:top;">http_cookie</td><td style="vertical-align:top;">:</td><td><div>session_id_admin=58.173.119.87-cd3a3ae8-7719-4ec9-9a73-cefbb032b659; session_id_bundjalung=&quot;35109:59f9b294-42ea-4f08-8b54-09638865e004&quot;</div></td></tr><tr><td style="font-weight:bold;vertical-align:top;">http_host</td><td style="vertical-align:top;">:</td><td><div>bundjalung.dalang.com.au</div></td></tr><tr><td style="font-weight:bold;vertical-align:top;">http_origin</td><td style="vertical-align:top;">:</td><td><div>http://bundjalung.dalang.com.au</div></td></tr><tr><td style="font-weight:bold;vertical-align:top;">http_referer</td><td style="vertical-align:top;">:</td><td><div>http://bundjalung.dalang.com.au/learning/page/BundjalungWahlubal_using_pictures_for_language_learning</div></td></tr><tr><td style="font-weight:bold;vertical-align:top;">http_user_agent</td><td style="vertical-align:top;">:</td><td><div>Mozilla/5.0 (Macintosh; Intel Mac OS X 10_10_4) AppleWebKit/537.36 (KHTML, like Gecko) Chrome/43.0.2357.134 Safari/537.36</div></td></tr><tr><td style="font-weight:bold;vertical-align:top;">http_x_requested_with</td><td style="vertical-align:top;">:</td><td><div>XMLHttpRequest</div></td></tr><tr><td style="font-weight:bold;vertical-align:top;">is_jython</td><td style="vertical-align:top;">:</td><td><div>False</div></td></tr><tr><td style="font-weight:bold;vertical-align:top;">is_pypy</td><td style="vertical-align:top;">:</td><td><div>False</div></td></tr><tr><td style="font-weight:bold;vertical-align:top;">is_source</td><td style="vertical-align:top;">:</td><td><div>True</div></td></tr><tr><td style="font-weight:bold;vertical-align:top;">local_hosts</td><td style="vertical-align:top;">:</td><td><div><table><tr><td><div>129.94.172.214</div></td></tr><tr><td><div>::ffff:127.0.0.1</div></td></tr><tr><td><div>::1</div></td></tr><tr><td><div>wiradjuri.dalang.com.au</div></td></tr><tr><td><div>mindalgali</div></td></tr><tr><td><div>127.0.1.1</div></td></tr><tr><td><div>mindalgali.cse.unsw.EDU.AU</div></td></tr><tr><td><div>127.0.0.1</div></td></tr></table></div></td></tr><tr><td style="font-weight:bold;vertical-align:top;">mod_wsgi.application_group</td><td style="vertical-align:top;">:</td><td><div>dalang.com.au|</div></td></tr><tr><td style="font-weight:bold;vertical-align:top;">mod_wsgi.callable_object</td><td style="vertical-align:top;">:</td><td><div>application</div></td></tr><tr><td style="font-weight:bold;vertical-align:top;">mod_wsgi.enable_sendfile</td><td style="vertical-align:top;">:</td><td><div>0</div></td></tr><tr><td style="font-weight:bold;vertical-align:top;">mod_wsgi.handler_script</td><td style="vertical-align:top;">:</td><td><div></div></td></tr><tr><td style="font-weight:bold;vertical-align:top;">mod_wsgi.input_chunked</td><td style="vertical-align:top;">:</td><td><div>0</div></td></tr><tr><td style="font-weight:bold;vertical-align:top;">mod_wsgi.listener_host</td><td style="vertical-align:top;">:</td><td><div></div></td></tr><tr><td style="font-weight:bold;vertical-align:top;">mod_wsgi.listener_port</td><td style="vertical-align:top;">:</td><td><div>80</div></td></tr><tr><td style="font-weight:bold;vertical-align:top;">mod_wsgi.process_group</td><td style="vertical-align:top;">:</td><td><div>web2py</div></td></tr><tr><td style="font-weight:bold;vertical-align:top;">mod_wsgi.queue_start</td><td style="vertical-align:top;">:</td><td><div>1437142998795836</div></td></tr><tr><td style="font-weight:bold;vertical-align:top;">mod_wsgi.request_handler</td><td style="vertical-align:top;">:</td><td><div>wsgi-script</div></td></tr><tr><td style="font-weight:bold;vertical-align:top;">mod_wsgi.script_reloading</td><td style="vertical-align:top;">:</td><td><div>1</div></td></tr><tr><td style="font-weight:bold;vertical-align:top;">mod_wsgi.version</td><td style="vertical-align:top;">:</td><td><div><table><tr><td><div>3</div></td></tr><tr><td><div>4</div></td></tr></table></div></td></tr><tr><td style="font-weight:bold;vertical-align:top;">mod_wsgi_application_group</td><td style="vertical-align:top;">:</td><td><div>dalang.com.au|</div></td></tr><tr><td style="font-weight:bold;vertical-align:top;">mod_wsgi_callable_object</td><td style="vertical-align:top;">:</td><td><div>application</div></td></tr><tr><td style="font-weight:bold;vertical-align:top;">mod_wsgi_enable_sendfile</td><td style="vertical-align:top;">:</td><td><div>0</div></td></tr><tr><td style="font-weight:bold;vertical-align:top;">mod_wsgi_handler_script</td><td style="vertical-align:top;">:</td><td><div></div></td></tr><tr><td style="font-weight:bold;vertical-align:top;">mod_wsgi_input_chunked</td><td style="vertical-align:top;">:</td><td><div>0</div></td></tr><tr><td style="font-weight:bold;vertical-align:top;">mod_wsgi_listener_host</td><td style="vertical-align:top;">:</td><td><div></div></td></tr><tr><td style="font-weight:bold;vertical-align:top;">mod_wsgi_listener_port</td><td style="vertical-align:top;">:</td><td><div>80</div></td></tr><tr><td style="font-weight:bold;vertical-align:top;">mod_wsgi_process_group</td><td style="vertical-align:top;">:</td><td><div>web2py</div></td></tr><tr><td style="font-weight:bold;vertical-align:top;">mod_wsgi_queue_start</td><td style="vertical-align:top;">:</td><td><div>1437142998795836</div></td></tr><tr><td style="font-weight:bold;vertical-align:top;">mod_wsgi_request_handler</td><td style="vertical-align:top;">:</td><td><div>wsgi-script</div></td></tr><tr><td style="font-weight:bold;vertical-align:top;">mod_wsgi_script_reloading</td><td style="vertical-align:top;">:</td><td><div>1</div></td></tr><tr><td style="font-weight:bold;vertical-align:top;">mod_wsgi_version</td><td style="vertical-align:top;">:</td><td><div><table><tr><td><div>3</div></td></tr><tr><td><div>4</div></td></tr></table></div></td></tr><tr><td style="font-weight:bold;vertical-align:top;">path_info</td><td style="vertical-align:top;">:</td><td><div>/learning/parser.load</div></td></tr><tr><td style="font-weight:bold;vertical-align:top;">path_translated</td><td style="vertical-align:top;">:</td><td><div>/usr/local/web2py/wsgihandler.py/learning/parser.load</div></td></tr><tr><td style="font-weight:bold;vertical-align:top;">query_string</td><td style="vertical-align:top;">:</td><td><div></div></td></tr><tr><td style="font-weight:bold;vertical-align:top;">remote_addr</td><td style="vertical-align:top;">:</td><td><div>58.173.119.87</div></td></tr><tr><td style="font-weight:bold;vertical-align:top;">remote_port</td><td style="vertical-align:top;">:</td><td><div>34406</div></td></tr><tr><td style="font-weight:bold;vertical-align:top;">request_method</td><td style="vertical-align:top;">:</td><td><div>POST</div></td></tr><tr><td style="font-weight:bold;vertical-align:top;">request_scheme</td><td style="vertical-align:top;">:</td><td><div>http</div></td></tr><tr><td style="font-weight:bold;vertical-align:top;">request_uri</td><td style="vertical-align:top;">:</td><td><div>/Bundjalung/learning/parser.load</div></td></tr><tr><td style="font-weight:bold;vertical-align:top;">script_filename</td><td style="vertical-align:top;">:</td><td><div>/usr/local/web2py/wsgihandler.py</div></td></tr><tr><td style="font-weight:bold;vertical-align:top;">script_name</td><td style="vertical-align:top;">:</td><td><div></div></td></tr><tr><td style="font-weight:bold;vertical-align:top;">server_addr</td><td style="vertical-align:top;">:</td><td><div>129.94.172.214</div></td></tr><tr><td style="font-weight:bold;vertical-align:top;">server_admin</td><td style="vertical-align:top;">:</td><td><div>cat.kutay@gmail.com</div></td></tr><tr><td style="font-weight:bold;vertical-align:top;">server_name</td><td style="vertical-align:top;">:</td><td><div>bundjalung.dalang.com.au</div></td></tr><tr><td style="font-weight:bold;vertical-align:top;">server_port</td><td style="vertical-align:top;">:</td><td><div>80</div></td></tr><tr><td style="font-weight:bold;vertical-align:top;">server_protocol</td><td style="vertical-align:top;">:</td><td><div>HTTP/1.1</div></td></tr><tr><td style="font-weight:bold;vertical-align:top;">server_signature</td><td style="vertical-align:top;">:</td><td><div>&lt;address&gt;Apache/2.4.7 (Ubuntu) Server at bundjalung.dalang.com.au Port 80&lt;/address&gt;\n</div></td></tr><tr><td style="font-weight:bold;vertical-align:top;">server_software</td><td style="vertical-align:top;">:</td><td><div>Apache/2.4.7 (Ubuntu)</div></td></tr><tr><td style="font-weight:bold;vertical-align:top;">web2py_crontype</td><td style="vertical-align:top;">:</td><td><div>soft</div></td></tr><tr><td style="font-weight:bold;vertical-align:top;">web2py_original_uri</td><td style="vertical-align:top;">:</td><td><div>/learning/parser.load</div></td></tr><tr><td style="font-weight:bold;vertical-align:top;">web2py_path</td><td style="vertical-align:top;">:</td><td><div>/usr/local/web2py</div></td></tr><tr><td style="font-weight:bold;vertical-align:top;">web2py_version</td><td style="vertical-align:top;">:</td><td><div>2.9.12-stable+timestamp.2015.01.17.06.11.03</div></td></tr><tr><td style="font-weight:bold;vertical-align:top;">wsgi.errors</td><td style="vertical-align:top;">:</td><td><div>&lt;mod_wsgi.Log object at 0x7f5493a8d030&gt;</div></td></tr><tr><td style="font-weight:bold;vertical-align:top;">wsgi.file_wrapper</td><td style="vertical-align:top;">:</td><td><div>&lt;built-in method file_wrapper of mod_wsgi.Adapter object at 0x7f54b504c198&gt;</div></td></tr><tr><td style="font-weight:bold;vertical-align:top;">wsgi.input</td><td style="vertical-align:top;">:</td><td><div>&lt;mod_wsgi.Input object at 0x7f5493c33bb0&gt;</div></td></tr><tr><td style="font-weight:bold;vertical-align:top;">wsgi.multiprocess</td><td style="vertical-align:top;">:</td><td><div>True</div></td></tr><tr><td style="font-weight:bold;vertical-align:top;">wsgi.multithread</td><td style="vertical-align:top;">:</td><td><div>True</div></td></tr><tr><td style="font-weight:bold;vertical-align:top;">wsgi.run_once</td><td style="vertical-align:top;">:</td><td><div>False</div></td></tr><tr><td style="font-weight:bold;vertical-align:top;">wsgi.url_scheme</td><td style="vertical-align:top;">:</td><td><div>http</div></td></tr><tr><td style="font-weight:bold;vertical-align:top;">wsgi.version</td><td style="vertical-align:top;">:</td><td><div><table><tr><td><div>1</div></td></tr><tr><td><div>0</div></td></tr></table></div></td></tr><tr><td style="font-weight:bold;vertical-align:top;">wsgi_errors</td><td style="vertical-align:top;">:</td><td><div>&lt;mod_wsgi.Log object at 0x7f5493a8d030&gt;</div></td></tr><tr><td style="font-weight:bold;vertical-align:top;">wsgi_file_wrapper</td><td style="vertical-align:top;">:</td><td><div>&lt;built-in method file_wrapper of mod_wsgi.Adapter object at 0x7f54b504c198&gt;</div></td></tr><tr><td style="font-weight:bold;vertical-align:top;">wsgi_input</td><td style="vertical-align:top;">:</td><td><div>&lt;mod_wsgi.Input object at 0x7f5493c33bb0&gt;</div></td></tr><tr><td style="font-weight:bold;vertical-align:top;">wsgi_multiprocess</td><td style="vertical-align:top;">:</td><td><div>True</div></td></tr><tr><td style="font-weight:bold;vertical-align:top;">wsgi_multithread</td><td style="vertical-align:top;">:</td><td><div>True</div></td></tr><tr><td style="font-weight:bold;vertical-align:top;">wsgi_run_once</td><td style="vertical-align:top;">:</td><td><div>False</div></td></tr><tr><td style="font-weight:bold;vertical-align:top;">wsgi_url_scheme</td><td style="vertical-align:top;">:</td><td><div>http</div></td></tr><tr><td style="font-weight:bold;vertical-align:top;">wsgi_version</td><td style="vertical-align:top;">:</td><td><div><table><tr><td><div>1</div></td></tr><tr><td><div>0</div></td></tr></table></div></td></tr></table></div></td></tr><tr><td style="font-weight:bold;vertical-align:top;">extension</td><td style="vertical-align:top;">:</td><td><div>load</div></td></tr><tr><td style="font-weight:bold;vertical-align:top;">folder</td><td style="vertical-align:top;">:</td><td><div>/usr/local/web2py/applications/Bundjalung/</div></td></tr><tr><td style="font-weight:bold;vertical-align:top;">function</td><td style="vertical-align:top;">:</td><td><div>parser</div></td></tr><tr><td style="font-weight:bold;vertical-align:top;">global_settings</td><td style="vertical-align:top;">:</td><td><div><table><tr><td style="font-weight:bold;vertical-align:top;">app_folders</td><td style="vertical-align:top;">:</td><td><div>set([&#x27;/usr/local/web2py/applications/Dharug/&#x27;, &#x27;/usr/local/web2py/applications/Language/&#x27;, &#x27;/usr/local/web2py/applications/admin/&#x27;, &#x27;/usr/local/web2py/applications/Bundjalung/&#x27;, &#x27;/usr/local/web2py/applications/kinship/&#x27;, &#x27;/usr/local/web2py/applications/Wiradjuri/&#x27;])</div></td></tr><tr><td style="font-weight:bold;vertical-align:top;">applications_parent</td><td style="vertical-align:top;">:</td><td><div>/usr/local/web2py</div></td></tr><tr><td style="font-weight:bold;vertical-align:top;">db_sessions</td><td style="vertical-align:top;">:</td><td><div>set([&#x27;Bundjalung&#x27;, &#x27;kinship&#x27;, &#x27;Language&#x27;, &#x27;Dharug&#x27;])</div></td></tr><tr><td style="font-weight:bold;vertical-align:top;">debugging</td><td style="vertical-align:top;">:</td><td><div>False</div></td></tr><tr><td style="font-weight:bold;vertical-align:top;">gluon_parent</td><td style="vertical-align:top;">:</td><td><div>/usr/local/web2py</div></td></tr><tr><td style="font-weight:bold;vertical-align:top;">is_jython</td><td style="vertical-align:top;">:</td><td><div>False</div></td></tr><tr><td style="font-weight:bold;vertical-align:top;">is_pypy</td><td style="vertical-align:top;">:</td><td><div>False</div></td></tr><tr><td style="font-weight:bold;vertical-align:top;">is_source</td><td style="vertical-align:top;">:</td><td><div>True</div></td></tr><tr><td style="font-weight:bold;vertical-align:top;">local_hosts</td><td style="vertical-align:top;">:</td><td><div><table><tr><td><div>129.94.172.214</div></td></tr><tr><td><div>::ffff:127.0.0.1</div></td></tr><tr><td><div>::1</div></td></tr><tr><td><div>wiradjuri.dalang.com.au</div></td></tr><tr><td><div>mindalgali</div></td></tr><tr><td><div>127.0.1.1</div></td></tr><tr><td><div>mindalgali.cse.unsw.EDU.AU</div></td></tr><tr><td><div>127.0.0.1</div></td></tr></table></div></td></tr><tr><td style="font-weight:bold;vertical-align:top;">web2py_crontype</td><td style="vertical-align:top;">:</td><td><div>soft</div></td></tr><tr><td style="font-weight:bold;vertical-align:top;">web2py_version</td><td style="vertical-align:top;">:</td><td><div>2.9.12-stable+timestamp.2015.01.17.06.11.03</div></td></tr></table></div></td></tr><tr><td style="font-weight:bold;vertical-align:top;">is_https</td><td style="vertical-align:top;">:</td><td><div>False</div></td></tr><tr><td style="font-weight:bold;vertical-align:top;">is_local</td><td style="vertical-align:top;">:</td><td><div>False</div></td></tr><tr><td style="font-weight:bold;vertical-align:top;">is_restful</td><td style="vertical-align:top;">:</td><td><div>False</div></td></tr><tr><td style="font-weight:bold;vertical-align:top;">is_sheduler</td><td style="vertical-align:top;">:</td><td><div>None</div></td></tr><tr><td style="font-weight:bold;vertical-align:top;">is_shell</td><td style="vertical-align:top;">:</td><td><div>None</div></td></tr><tr><td style="font-weight:bold;vertical-align:top;">now</td><td style="vertical-align:top;">:</td><td><div>datetime.datetime(2015, 7, 18, 0, 23, 18, 813151)</div></td></tr><tr><td style="font-weight:bold;vertical-align:top;">url</td><td style="vertical-align:top;">:</td><td><div>/learning/parser.load</div></td></tr><tr><td style="font-weight:bold;vertical-align:top;">utcnow</td><td style="vertical-align:top;">:</td><td><div>datetime.datetime(2015, 7, 17, 14, 23, 18, 817030)</div></td></tr><tr><td style="font-weight:bold;vertical-align:top;">uuid</td><td style="vertical-align:top;">:</td><td><div>Bundjalung/58.173.119.87.2015-07-18.00-23-18.c565517b-1d16-4ea9-b0d4-b97f8f0c6744</div></td></tr><tr><td style="font-weight:bold;vertical-align:top;">wsgi</td><td style="vertical-align:top;">:</td><td><div>&lt;gluon.main.LazyWSGI object at 0x7f5493a8d1d0&gt;</div></td></tr></table></div>'
tRp58
sS'frames'
p59
(lp60
(dp61
S'file'
p62
S'/usr/local/web2py/gluon/restricted.py'
p63
sS'dump'
p64
(dp65
S'environment'
p66
S"{'A': <class 'gluon.html.A'>, 'ANY_OF': <class 'gluon.validators.ANY_OF'>, 'ASSIGNJS': <function ASSIGNJS>, 'AboriginalLanguageDictionary': <class applications.Bundjalung.modules.altk.dictionary.AboriginalLanguageDictionary>, 'AboriginalLanguageStemmer': <class 'applications.Bundjalung.modules.altk.stemmer.AboriginalLanguageStemmer'>, 'AboriginalLanguageTagger': <class applications.Bundjalung.modules.altk.tagger.AboriginalLanguageTagger>, 'Auth': <class 'gluon.tools.Auth'>, 'B': <class 'gluon.html.B'>, 'BEAUTIFY': <class 'gluon.html.BEAUTIFY'>, 'BODY': <class 'gluon.html.BODY'>, ...}"
p67
sS'ccode'
p68
S'<code object <module> at 0x7f54b48d7130, file "/...ions/Bundjalung/controllers/learning.py", line 8>'
p69
ssS'lnum'
p70
I224
sS'lines'
p71
(dp72
I224
S'        exec ccode in environment'
p73
sI225
S'    except HTTP:'
p74
sI226
S'        raise'
p75
sI227
S'    except RestrictedError:'
p76
sI228
S'        # do not encapsulate (obfuscate) the original RestrictedError'
p77
sI219
S'    try:'
p78
sI220
S'        if isinstance(code, types.CodeType):'
p79
sI221
S'            ccode = code'
p80
sI222
S'        else:'
p81
sI223
S'            ccode = compile2(code, layer)'
p82
ssS'call'
p83
S"(code='#################\\n#Interface to nltk for languag...=tags)\\n\\n\\nresponse._vars=response._caller(parser)\\n', environment={'A': <class 'gluon.html.A'>, 'ANY_OF': <class 'gluon.validators.ANY_OF'>, 'ASSIGNJS': <function ASSIGNJS>, 'AboriginalLanguageDictionary': <class applications.Bundjalung.modules.altk.dictionary.AboriginalLanguageDictionary>, 'AboriginalLanguageStemmer': <class 'applications.Bundjalung.modules.altk.stemmer.AboriginalLanguageStemmer'>, 'AboriginalLanguageTagger': <class applications.Bundjalung.modules.altk.tagger.AboriginalLanguageTagger>, 'Auth': <class 'gluon.tools.Auth'>, 'B': <class 'gluon.html.B'>, 'BEAUTIFY': <class 'gluon.html.BEAUTIFY'>, 'BODY': <class 'gluon.html.BODY'>, ...}, layer='/usr/local/web2py/applications/Bundjalung/controllers/learning.py')"
p84
sS'func'
p85
S'restricted'
p86
sa(dp87
g62
S'/usr/local/web2py/applications/Bundjalung/controllers/learning.py'
p88
sg64
(dp89
sg70
I264
sg71
(dp90
I256
S"                       next=URL(r=request, c='plugin_wiki', f='index'))"
p91
sI257
S'    else:'
p92
sI258
S'                form = crud.update(w, page, deletable=True, onaccept=crud.archive,'
p93
sI259
S"                next=URL(r=request,c='learning', f='page',args=slug))"
p94
sI260
S''
sI261
S'    return dict(form=form,page=page,tags=tags)'
p95
sI262
S''
sI253
S"        tags = page.tags #in practice 'xyz' would be a variable"
p96
sI254
S'    if page.title=="Index":'
p97
sI255
S'        form = crud.update(w, page, deletable=True, onaccept=crud.archive,'
p98
ssg83
S'()'
p99
sg85
S'<module>'
p100
sa(dp101
g62
S'/usr/local/web2py/gluon/globals.py'
p102
sg64
(dp103
S'self'
p104
S'undefined'
p105
sS'f'
S'<function parser>'
p106
ssg70
I393
sg71
(dp107
I388
S"        self.flash = ''            # used by the default view layout"
p108
sI389
S'        self.meta = Storage()      # used by web2py_ajax.html'
p109
sI390
S'        self.menu = []             # used by the default view layout'
p110
sI391
S'        self.files = []            # used by web2py_ajax.html'
p111
sI392
S'        self._vars = None'
p112
sI393
S'        self._caller = lambda f: f()'
p113
sI394
S'        self._view_environment = None'
p114
sI395
S'        self._custom_commit = None'
p115
sI396
S'        self._custom_rollback = None'
p116
sI397
S"        self.generic_patterns = ['*']"
p117
ssg83
S'(f=<function parser>)'
p118
sg85
S'<lambda>'
p119
sa(dp120
g62
S'/usr/local/web2py/applications/Bundjalung/controllers/learning.py'
p121
sg64
(dp122
S').tokenize'
p123
S'<unbound method PunktSentenceTokenizer.tokenize>'
p124
sS'newwords'
p125
g105
sS'global PunktSentenceTokenizer'
p126
S"<class 'nltk.tokenize.punkt.PunktSentenceTokenizer'>"
p127
sS'searchterm'
p128
S"['ran', '']"
p129
ssg70
I136
sg71
(dp130
I131
S'    ws = stemmer.AboriginalLanguageStemmer()'
p131
sI132
S''
sI133
S'    if (words):'
p132
sI134
S'\treturn dict(wordlist=False, words=words, query=searchterm)'
p133
sI135
S'    else:'
p134
sI136
S'\t\tnewwords = PunktSentenceTokenizer().tokenize(searchterm)'
p135
sI137
S'\t\twords = []'
p136
sI138
S''
sI139
S'                for word in newwords:'
p137
sI140
S'                \twords+= [translate_word(word, lang, ws, wd)]'
p138
ssg83
S'()'
p139
sg85
S'parser'
p140
sa(dp141
g62
S'/usr/local/lib/python2.7/dist-packages/nltk/tokenize/punkt.py'
p142
sg64
(dp143
S'text'
p144
S"['ran', '']"
p145
sS'self'
p146
S'<nltk.tokenize.punkt.PunktSentenceTokenizer object>'
p147
sS'self.sentences_from_text'
p148
S'<bound method PunktSentenceTokenizer.sentences_f...tk.tokenize.punkt.PunktSentenceTokenizer object>>'
p149
sS'builtinlist'
p150
S"<type 'list'>"
p151
sS'realign_boundaries'
p152
S'True'
p153
ssg70
I1226
sg71
(dp154
I1221
S''
sI1222
S'    def tokenize(self, text, realign_boundaries=True):'
p155
sI1223
S'        """'
p156
sI1224
S'        Given a text, returns a list of the sentences in that text.'
p157
sI1225
S'        """'
p158
sI1226
S'        return list(self.sentences_from_text(text, realign_boundaries))'
p159
sI1227
S''
sI1228
S'    def debug_decisions(self, text):'
p160
sI1229
S'        """'
p161
sI1230
S'        Classifies candidate periods as sentence breaks, yielding a dict for'
p162
ssg83
S"(self=<nltk.tokenize.punkt.PunktSentenceTokenizer object>, text=['ran', ''], realign_boundaries=True)"
p163
sg85
S'tokenize'
p164
sa(dp165
g62
S'/usr/local/lib/python2.7/dist-packages/nltk/tokenize/punkt.py'
p166
sg64
(dp167
S'self.span_tokenize'
p168
S'<bound method PunktSentenceTokenizer.span_tokeni...tk.tokenize.punkt.PunktSentenceTokenizer object>>'
p169
sS'e'
g105
sS'realign_boundaries'
p170
g153
sS'text'
p171
S"['ran', '']"
p172
sS'self'
p173
S'<nltk.tokenize.punkt.PunktSentenceTokenizer object>'
p174
sS's'
g105
ssg70
I1274
sg71
(dp175
I1269
S'        Given a text, generates the sentences in that text by only'
p176
sI1270
S'        testing candidate sentence breaks. If realign_boundaries is'
p177
sI1271
S'        True, includes in the sentence closing punctuation that'
p178
sI1272
S'        follows the period.'
p179
sI1273
S'        """'
p180
sI1274
S'        return [text[s:e] for s, e in self.span_tokenize(text, realign_boundaries)]'
p181
sI1275
S''
sI1276
S'    def _slices_from_text(self, text):'
p182
sI1277
S'        last_break = 0'
p183
sI1278
S'        for match in self._lang_vars.period_context_re().finditer(text):'
p184
ssg83
S"(self=<nltk.tokenize.punkt.PunktSentenceTokenizer object>, text=['ran', ''], realign_boundaries=True)"
p185
sg85
S'sentences_from_text'
p186
sa(dp187
g62
S'/usr/local/lib/python2.7/dist-packages/nltk/tokenize/punkt.py'
p188
sg64
(dp189
S'slices'
p190
S'<generator object _realign_boundaries>'
p191
sS'sl'
p192
g105
ssg70
I1265
sg71
(dp193
I1260
S'        in the text.'
p194
sI1261
S'        """'
p195
sI1262
S'        slices = self._slices_from_text(text)'
p196
sI1263
S'        if realign_boundaries:'
p197
sI1264
S'            slices = self._realign_boundaries(text, slices)'
p198
sI1265
S'        return [(sl.start, sl.stop) for sl in slices]'
p199
sI1266
S''
sI1267
S'    def sentences_from_text(self, text, realign_boundaries=True):'
p200
sI1268
S'        """'
p201
sI1269
S'        Given a text, generates the sentences in that text by only'
p202
ssg83
S"(self=<nltk.tokenize.punkt.PunktSentenceTokenizer object>, text=['ran', ''], realign_boundaries=True)"
p203
sg85
S'span_tokenize'
p204
sa(dp205
g62
S'/usr/local/lib/python2.7/dist-packages/nltk/tokenize/punkt.py'
p206
sg64
(dp207
S'global _pair_iter'
p208
S'<function _pair_iter>'
p209
sS'sl1'
p210
g105
sS'sl2'
p211
g105
sS'slices'
p212
S'<generator object _slices_from_text>'
p213
ssg70
I1304
sg71
(dp214
I1299
S'        This method will produce::'
p215
sI1300
S''
sI1301
S'            ["(Sent1.)", "Sent2."].'
p216
sI1302
S'        """'
p217
sI1303
S'        realign = 0'
p218
sI1304
S'        for sl1, sl2 in _pair_iter(slices):'
p219
sI1305
S'            sl1 = slice(sl1.start + realign, sl1.stop)'
p220
sI1306
S'            if not sl2:'
p221
sI1307
S'                if text[sl1]:'
p222
sI1308
S'                    yield sl1'
p223
ssg83
S"(self=<nltk.tokenize.punkt.PunktSentenceTokenizer object>, text=['ran', ''], slices=<generator object _slices_from_text>)"
p224
sg85
S'_realign_boundaries'
p225
sa(dp226
g62
S'/usr/local/lib/python2.7/dist-packages/nltk/tokenize/punkt.py'
p227
sg64
(dp228
S'builtinnext'
p229
S'<built-in function next>'
p230
sS'prev'
p231
g105
sS'it'
p232
S'<generator object _slices_from_text>'
p233
ssg70
I310
sg71
(dp234
I305
S'    Yields pairs of tokens from the given iterator such that each input'
p235
sI306
S'    token will appear as the first element in a yielded tuple. The last'
p236
sI307
S'    pair will have None as its second element.'
p237
sI308
S'    """'
p238
sI309
S'    it = iter(it)'
p239
sI310
S'    prev = next(it)'
p240
sI311
S'    for el in it:'
p241
sI312
S'        yield (prev, el)'
p242
sI313
S'        prev = el'
p243
sI314
S'    yield (prev, None)'
p244
ssg83
S'(it=<generator object _slices_from_text>)'
p245
sg85
S'_pair_iter'
p246
sa(dp247
g62
S'/usr/local/lib/python2.7/dist-packages/nltk/tokenize/punkt.py'
p248
sg64
(dp249
S'text'
p250
S"['ran', '']"
p251
sS'self'
p252
S'<nltk.tokenize.punkt.PunktSentenceTokenizer object>'
p253
sS'self._lang_vars.period_context_re'
p254
S'<bound method PunktLanguageVars.period_context_re of <nltk.tokenize.punkt.PunktLanguageVars object>>'
p255
sS'self._lang_vars'
p256
S'<nltk.tokenize.punkt.PunktLanguageVars object>'
p257
sS').finditer'
p258
g105
sS'match'
p259
g105
ssg70
I1278
sg71
(dp260
I1280
S'            if self.text_contains_sentbreak(context):'
p261
sI1281
S'                yield slice(last_break, match.end())'
p262
sI1282
S"                if match.group('next_tok'):"
p263
sI1273
S'        """'
p264
sI1274
S'        return [text[s:e] for s, e in self.span_tokenize(text, realign_boundaries)]'
p265
sI1275
S''
sI1276
S'    def _slices_from_text(self, text):'
p266
sI1277
S'        last_break = 0'
p267
sI1278
S'        for match in self._lang_vars.period_context_re().finditer(text):'
p268
sI1279
S"            context = match.group() + match.group('after_tok')"
p269
ssg83
S"(self=<nltk.tokenize.punkt.PunktSentenceTokenizer object>, text=['ran', ''])"
p270
sg85
S'_slices_from_text'
p271
sasS'pyver'
p272
S'Python 2.7.6: /usr/bin/python (prefix: /usr)'
p273
sS'session'
p274
g57
(S's\x00\n\x00\x00<div><table><tr><td style="font-weight:bold;vertical-align:top;">auth</td><td style="vertical-align:top;">:</td><td><div><table><tr><td style="font-weight:bold;vertical-align:top;">expiration</td><td style="vertical-align:top;">:</td><td><div>3600</div></td></tr><tr><td style="font-weight:bold;vertical-align:top;">hmac_key</td><td style="vertical-align:top;">:</td><td><div>e6550083-c3ca-47f3-8d25-0a300a607f17</div></td></tr><tr><td style="font-weight:bold;vertical-align:top;">last_visit</td><td style="vertical-align:top;">:</td><td><div>datetime.datetime(2015, 7, 18, 0, 22, 57, 872811)</div></td></tr><tr><td style="font-weight:bold;vertical-align:top;">remember_me</td><td style="vertical-align:top;">:</td><td><div>False</div></td></tr><tr><td style="font-weight:bold;vertical-align:top;">user</td><td style="vertical-align:top;">:</td><td><div><table><tr><td style="font-weight:bold;vertical-align:top;">Role_Name</td><td style="vertical-align:top;">:</td><td><div>teacher</div></td></tr><tr><td style="font-weight:bold;vertical-align:top;">email</td><td style="vertical-align:top;">:</td><td><div>ckutay@cities.org.au</div></td></tr><tr><td style="font-weight:bold;vertical-align:top;">first_name</td><td style="vertical-align:top;">:</td><td><div>Cat</div></td></tr><tr><td style="font-weight:bold;vertical-align:top;">id</td><td style="vertical-align:top;">:</td><td><div>1L</div></td></tr><tr><td style="font-weight:bold;vertical-align:top;">last_name</td><td style="vertical-align:top;">:</td><td><div>Kutay</div></td></tr><tr><td style="font-weight:bold;vertical-align:top;">registration_id</td><td style="vertical-align:top;">:</td><td><div>0L</div></td></tr><tr><td style="font-weight:bold;vertical-align:top;">registration_key</td><td style="vertical-align:top;">:</td><td><div></div></td></tr><tr><td style="font-weight:bold;vertical-align:top;">reset_password_key</td><td style="vertical-align:top;">:</td><td><div></div></td></tr><tr><td style="font-weight:bold;vertical-align:top;">username</td><td style="vertical-align:top;">:</td><td><div>cat.kutay</div></td></tr></table></div></td></tr><tr><td style="font-weight:bold;vertical-align:top;">user_groups</td><td style="vertical-align:top;">:</td><td><div><table><tr><td style="font-weight:bold;vertical-align:top;">1</td><td style="vertical-align:top;">:</td><td><div>developer</div></td></tr></table></div></td></tr></table></div></td></tr><tr><td style="font-weight:bold;vertical-align:top;">flash</td><td style="vertical-align:top;">:</td><td><div>None</div></td></tr></table></div>'
tRp275
sS'etype'
p276
S"<type 'exceptions.TypeError'>"
p277
sS'date'
p278
S'Sat Jul 18 00:23:20 2015'
p279
sS'response'
p280
g57
(S's\xc10\x00\x00<div><table><tr><td style="font-weight:bold;vertical-align:top;">body</td><td style="vertical-align:top;">:</td><td><div>&lt;cStringIO.StringO object at 0x7f54a47dcbc8&gt;</div></td></tr><tr><td style="font-weight:bold;vertical-align:top;">cookies</td><td style="vertical-align:top;">:</td><td><div><table><tr><td style="font-weight:bold;vertical-align:top;">session_id_bundjalung</td><td style="vertical-align:top;">:</td><td><div>35109:59f9b294-42ea-4f08-8b54-09638865e004<table><tr><td style="font-weight:bold;vertical-align:top;">comment</td><td style="vertical-align:top;">:</td><td><div></div></td></tr><tr><td style="font-weight:bold;vertical-align:top;">domain</td><td style="vertical-align:top;">:</td><td><div></div></td></tr><tr><td style="font-weight:bold;vertical-align:top;">expires</td><td style="vertical-align:top;">:</td><td><div></div></td></tr><tr><td style="font-weight:bold;vertical-align:top;">httponly</td><td style="vertical-align:top;">:</td><td><div></div></td></tr><tr><td style="font-weight:bold;vertical-align:top;">max-age</td><td style="vertical-align:top;">:</td><td><div></div></td></tr><tr><td style="font-weight:bold;vertical-align:top;">path</td><td style="vertical-align:top;">:</td><td><div>/</div></td></tr><tr><td style="font-weight:bold;vertical-align:top;">secure</td><td style="vertical-align:top;">:</td><td><div></div></td></tr><tr><td style="font-weight:bold;vertical-align:top;">version</td><td style="vertical-align:top;">:</td><td><div></div></td></tr></table></div></td></tr></table></div></td></tr><tr><td style="font-weight:bold;vertical-align:top;">delimiters</td><td style="vertical-align:top;">:</td><td><div><table><tr><td><div>{{</div></td></tr><tr><td><div>}}</div></td></tr></table></div></td></tr><tr><td style="font-weight:bold;vertical-align:top;">files</td><td style="vertical-align:top;">:</td><td><div><table><tr><td><div>/Bundjalung/static/plugin_multiselect/jquery.dimensions.js</div></td></tr><tr><td><div>/Bundjalung/static/plugin_multiselect/jquery.multiselect.js</div></td></tr><tr><td><div>/Bundjalung/static/plugin_multiselect/jquery.multiselect.css</div></td></tr></table></div></td></tr><tr><td style="font-weight:bold;vertical-align:top;">flash</td><td style="vertical-align:top;">:</td><td><div></div></td></tr><tr><td style="font-weight:bold;vertical-align:top;">form_label_separator</td><td style="vertical-align:top;">:</td><td><div>: </div></td></tr><tr><td style="font-weight:bold;vertical-align:top;">formstyle</td><td style="vertical-align:top;">:</td><td><div>table3cols</div></td></tr><tr><td style="font-weight:bold;vertical-align:top;">generic_patterns</td><td style="vertical-align:top;">:</td><td><div><table><tr><td><div>*</div></td></tr></table></div></td></tr><tr><td style="font-weight:bold;vertical-align:top;">headers</td><td style="vertical-align:top;">:</td><td><div><table><tr><td style="font-weight:bold;vertical-align:top;">X-Powered-By</td><td style="vertical-align:top;">:</td><td><div>web2py</div></td></tr></table></div></td></tr><tr><td style="font-weight:bold;vertical-align:top;">menu</td><td style="vertical-align:top;">:</td><td><div><table></table></div></td></tr><tr><td style="font-weight:bold;vertical-align:top;">menuAbout</td><td style="vertical-align:top;">:</td><td><div><table><tr><td><div><table><tr><td><div>People</div></td></tr><tr><td><div>False</div></td></tr><tr><td><div>/plugin_wiki/page.load/people</div></td></tr></table></div></td></tr><tr><td><div><table><tr><td><div>Traditional country</div></td></tr><tr><td><div>False</div></td></tr><tr><td><div>/plugin_wiki/page.load/traditional_country</div></td></tr></table></div></td></tr><tr><td><div><table><tr><td><div>Language background</div></td></tr><tr><td><div>False</div></td></tr><tr><td><div>/plugin_wiki/page.load/language_background</div></td></tr></table></div></td></tr><tr><td><div><table><tr><td><div>Outline of the language</div></td></tr><tr><td><div>False</div></td></tr><tr><td><div>/plugin_wiki/page.load/outline_of_the_language</div></td></tr></table></div></td></tr><tr><td><div><table><tr><td><div>Outline of resources</div></td></tr><tr><td><div>False</div></td></tr><tr><td><div>/plugin_wiki/page.load/outline_of_resources</div></td></tr></table></div></td></tr><tr><td><div><table><tr><td><div>History of the project</div></td></tr><tr><td><div>False</div></td></tr><tr><td><div>/plugin_wiki/page.load/history</div></td></tr></table></div></td></tr></table></div></td></tr><tr><td style="font-weight:bold;vertical-align:top;">menuLogin</td><td style="vertical-align:top;">:</td><td><div><table><tr><td><div><table><tr><td><div>Logout</div></td></tr><tr><td><div>False</div></td></tr><tr><td><div>/user.load/logout</div></td></tr></table></div></td></tr></table></div></td></tr><tr><td style="font-weight:bold;vertical-align:top;">menuResource</td><td style="vertical-align:top;">:</td><td><div><table><tr><td><div><table><tr><td><div>Dictionary Book</div></td></tr><tr><td><div>False</div></td></tr><tr><td><div>/plugin_wiki/page.load/dictionary</div></td></tr></table></div></td></tr><tr><td><div><table><tr><td><div>Language Resources</div></td></tr><tr><td><div>False</div></td></tr><tr><td><div>/plugin_wiki/resources.load</div></td></tr></table></div></td></tr><tr><td><div><table><tr><td><div>Written examples</div></td></tr><tr><td><div>False</div></td></tr><tr><td><div>/plugin_wiki/page.load/written_examples_of_the_language</div></td></tr></table></div></td></tr><tr><td><div><table><tr><td><div>Work Sheets</div></td></tr><tr><td><div>False</div></td></tr><tr><td><div>/learning/pages.load</div></td></tr></table></div></td></tr></table></div></td></tr><tr><td style="font-weight:bold;vertical-align:top;">menuTop</td><td style="vertical-align:top;">:</td><td><div><table><tr><td><div><table><tr><td><div>Home</div></td></tr><tr><td><div>False</div></td></tr><tr><td><div>/plugin_wiki/index.html</div></td></tr></table></div></td></tr><tr><td><div><table><tr><td><div>About Us</div></td></tr><tr><td><div>False</div></td></tr><tr><td><div>/plugin_wiki/page.load/about_us</div></td></tr></table></div></td></tr><tr><td><div><table><tr><td><div>Dictionary</div></td></tr><tr><td><div>False</div></td></tr><tr><td><div>/language/dictionary.load</div></td></tr></table></div></td></tr><tr><td><div><table><tr><td><div>Resources</div></td></tr><tr><td><div>False</div></td></tr><tr><td><div>/plugin_wiki/resources.load</div></td></tr></table></div></td></tr><tr><td><div><table><tr><td><div>Accept Regos</div></td></tr><tr><td><div>False</div></td></tr><tr><td><div>/appadmin/update.load/db.auth_user/registration_key/pending</div></td></tr></table></div></td></tr><tr><td><div><table><tr><td><div>Change Password</div></td></tr><tr><td><div>False</div></td></tr><tr><td><div>/user.load/change_password</div></td></tr></table></div></td></tr><tr><td><div><table><tr><td><div>Contact</div></td></tr><tr><td><div>False</div></td></tr><tr><td><div>/plugin_wiki/contact.load</div></td></tr></table></div></td></tr></table></div></td></tr><tr><td style="font-weight:bold;vertical-align:top;">menu_edit</td><td style="vertical-align:top;">:</td><td><div><table><tr><td><div><table><tr><td><div>Edit</div></td></tr><tr><td><div>False</div></td></tr><tr><td><div>/admin/design.load/Bundjalung</div></td></tr><tr><td><div><table><tr><td><div><table><tr><td><div>Controller</div></td></tr><tr><td><div>False</div></td></tr><tr><td><div>/admin/edit.load/Bundjalung/controllers/default.py</div></td></tr></table></div></td></tr><tr><td><div><table><tr><td><div>View</div></td></tr><tr><td><div>False</div></td></tr><tr><td><div>/admin/edit.load/Bundjalung/views/learning/parser.load</div></td></tr></table></div></td></tr><tr><td><div><table><tr><td><div>Layout</div></td></tr><tr><td><div>False</div></td></tr><tr><td><div>/admin/edit.load/Bundjalung/views/layout.html</div></td></tr></table></div></td></tr><tr><td><div><table><tr><td><div>Stylesheet</div></td></tr><tr><td><div>False</div></td></tr><tr><td><div>/admin/edit.load/Bundjalung/static/base.css</div></td></tr></table></div></td></tr><tr><td><div><table><tr><td><div>DB Model</div></td></tr><tr><td><div>False</div></td></tr><tr><td><div>/admin/edit.load/Bundjalung/models/db.py</div></td></tr></table></div></td></tr><tr><td><div><table><tr><td><div>Menu Model</div></td></tr><tr><td><div>False</div></td></tr><tr><td><div>/admin/edit.load/Bundjalung/models/menu.py</div></td></tr></table></div></td></tr><tr><td><div><table><tr><td><div>Database</div></td></tr><tr><td><div>False</div></td></tr><tr><td><div>/appadmin/index.load</div></td></tr></table></div></td></tr></table></div></td></tr></table></div></td></tr></table></div></td></tr><tr><td style="font-weight:bold;vertical-align:top;">menu_spread</td><td style="vertical-align:top;">:</td><td><div><table><tr><td><div><table><tr><td><div>Index</div></td></tr><tr><td><div>False</div></td></tr><tr><td><div>/plugin_spreadsheet/index.load</div></td></tr><tr><td><div><table></table></div></td></tr></table></div></td></tr></table></div></td></tr><tr><td style="font-weight:bold;vertical-align:top;">meta</td><td style="vertical-align:top;">:</td><td><div><table></table></div></td></tr><tr><td style="font-weight:bold;vertical-align:top;">models_to_run</td><td style="vertical-align:top;">:</td><td><div><table><tr><td><div>^\\w+\\.py$</div></td></tr><tr><td><div>^learning/\\w+\\.py$</div></td></tr><tr><td><div>^learning/parser/\\w+\\.py$</div></td></tr></table></div></td></tr><tr><td style="font-weight:bold;vertical-align:top;">postprocessing</td><td style="vertical-align:top;">:</td><td><div><table></table></div></td></tr><tr><td style="font-weight:bold;vertical-align:top;">session_client</td><td style="vertical-align:top;">:</td><td><div>58.173.119.87</div></td></tr><tr><td style="font-weight:bold;vertical-align:top;">session_cookie_compression_level</td><td style="vertical-align:top;">:</td><td><div>None</div></td></tr><tr><td style="font-weight:bold;vertical-align:top;">session_cookie_expires</td><td style="vertical-align:top;">:</td><td><div>None</div></td></tr><tr><td style="font-weight:bold;vertical-align:top;">session_cookie_key</td><td style="vertical-align:top;">:</td><td><div>None</div></td></tr><tr><td style="font-weight:bold;vertical-align:top;">session_data_name</td><td style="vertical-align:top;">:</td><td><div>session_data_bundjalung</div></td></tr><tr><td style="font-weight:bold;vertical-align:top;">session_db_record_id</td><td style="vertical-align:top;">:</td><td><div>35109L</div></td></tr><tr><td style="font-weight:bold;vertical-align:top;">session_db_table</td><td style="vertical-align:top;">:</td><td><div>&lt;Table web2py_session_Bundjalung (id,locked,client_ip,created_datetime,modified_datetime,unique_key,session_data)&gt;</div></td></tr><tr><td style="font-weight:bold;vertical-align:top;">session_db_unique_key</td><td style="vertical-align:top;">:</td><td><div>59f9b294-42ea-4f08-8b54-09638865e004</div></td></tr><tr><td style="font-weight:bold;vertical-align:top;">session_hash</td><td style="vertical-align:top;">:</td><td><div>6dd1b1109851d69bd9ff061e78156ced</div></td></tr><tr><td style="font-weight:bold;vertical-align:top;">session_id</td><td style="vertical-align:top;">:</td><td><div>35109:59f9b294-42ea-4f08-8b54-09638865e004</div></td></tr><tr><td style="font-weight:bold;vertical-align:top;">session_id_name</td><td style="vertical-align:top;">:</td><td><div>session_id_bundjalung</div></td></tr><tr><td style="font-weight:bold;vertical-align:top;">session_masterapp</td><td style="vertical-align:top;">:</td><td><div>Bundjalung</div></td></tr><tr><td style="font-weight:bold;vertical-align:top;">session_new</td><td style="vertical-align:top;">:</td><td><div>False</div></td></tr><tr><td style="font-weight:bold;vertical-align:top;">session_storage_type</td><td style="vertical-align:top;">:</td><td><div>db</div></td></tr><tr><td style="font-weight:bold;vertical-align:top;">start</td><td style="vertical-align:top;">:</td><td><div>True</div></td></tr><tr><td style="font-weight:bold;vertical-align:top;">status</td><td style="vertical-align:top;">:</td><td><div>200</div></td></tr><tr><td style="font-weight:bold;vertical-align:top;">title</td><td style="vertical-align:top;">:</td><td><div>Bundjalung-Yugambeh Dictionary</div></td></tr><tr><td style="font-weight:bold;vertical-align:top;">view</td><td style="vertical-align:top;">:</td><td><div>learning/parser.load</div></td></tr></table></div>'
tRp281
sS'locals'
p282
(dp283
S'text'
p284
S"['ran', '']"
p285
sS'last_break'
p286
S'0'
sS'self'
p287
S'<nltk.tokenize.punkt.PunktSentenceTokenizer object>'
p288
sssS'traceback'
p289
S'Traceback (most recent call last):\n  File "/usr/local/web2py/gluon/restricted.py", line 224, in restricted\n    exec ccode in environment\n  File "/usr/local/web2py/applications/Bundjalung/controllers/learning.py", line 264, in <module>\n  File "/usr/local/web2py/gluon/globals.py", line 393, in <lambda>\n    self._caller = lambda f: f()\n  File "/usr/local/web2py/applications/Bundjalung/controllers/learning.py", line 136, in parser\n    newwords = PunktSentenceTokenizer().tokenize(searchterm)\n  File "/usr/local/lib/python2.7/dist-packages/nltk/tokenize/punkt.py", line 1226, in tokenize\n    return list(self.sentences_from_text(text, realign_boundaries))\n  File "/usr/local/lib/python2.7/dist-packages/nltk/tokenize/punkt.py", line 1274, in sentences_from_text\n    return [text[s:e] for s, e in self.span_tokenize(text, realign_boundaries)]\n  File "/usr/local/lib/python2.7/dist-packages/nltk/tokenize/punkt.py", line 1265, in span_tokenize\n    return [(sl.start, sl.stop) for sl in slices]\n  File "/usr/local/lib/python2.7/dist-packages/nltk/tokenize/punkt.py", line 1304, in _realign_boundaries\n    for sl1, sl2 in _pair_iter(slices):\n  File "/usr/local/lib/python2.7/dist-packages/nltk/tokenize/punkt.py", line 310, in _pair_iter\n    prev = next(it)\n  File "/usr/local/lib/python2.7/dist-packages/nltk/tokenize/punkt.py", line 1278, in _slices_from_text\n    for match in self._lang_vars.period_context_re().finditer(text):\nTypeError: expected string or buffer\n'
p290
s.