(dp1
S'output'
p2
S"<type 'exceptions.AttributeError'> 'NoneType' object has no attribute 'startswith'"
p3
sS'layer'
p4
S'/usr/local/web2py/applications/Bundjalung/controllers/default.py'
p5
sS'code'
p6
S'# coding: utf-8\n\ndef index():\n\n redirect(URL(r=request, c=\'plugin_wiki\', f=\'index.html\'))\n\n@auth.requires_membership(\'editor\')\ndef edit_page():\n\t redirect(URL(r=request, c=\'plugin_wiki\', f=\'edit_page\', args=request.args))\n\ndef images():\n    subdirectory = \'uploads/media/images/\'# directory\n    filename = request.args(0)\n    fullpath = os.path.join(subdirectory, filename)\n    if request.args(1):\n            filenameadd = request.args(1)\n            fullpath = os.path.join(fullpath, filenameadd)\n    logging.warn(fullpath)\n    response.stream(os.path.join(request.folder,fullpath))\n\n##generic controller\n@auth.requires_membership(\'editor\')\ndef manage():\n    tableName=request.args[0]\n    if (tableName !="ALC" and tableName !="CLW"):\n\n\t    table=db[tableName]\n    else:\n\ttable=dblanguage[tableName]\n    form = crud.update(table,request.args(1))\n    table.id.represent = lambda id: \\\n       A(\'edit:\',id,_href=URL(args=(request.args(0),id)))\n    search, rows = crud.search(table)\n    return dict(form=form,search=search,rows=rows)\n\n@auth.requires_membership(\'editor\')\ndef _tags():\n    form = crud.create(db.tag)\n    tags = db(db.tag.id > 0).select(orderby=db.tag.name)\n    return dict(form=form, tags=tags)\n\n@auth.requires_membership(\'editor\')\ndef _edit_tag():\n    if not request.args:\n        session.flash = T(\'Invalid tag\')\n        redirect(URL(r=request,c=\'default\', f=\'_tags\'))\n    form = crud.update(db.tag, request.args[0])\n    return dict(form=form)\n\ndef map():\n    rows=db(db.alc.id>0).select()\n    return dict(rows=rows, googlemapkey=plugin_gmap.key)\n\ndef _pages():\n    if request.vars.query:\n        query = (db.plugin_wiki_page.tags.like(\'%%%s%%\' % request.vars.query)) & \\\n                (db.plugin_wiki_page.is_active == True) & (db.plugin_wiki_page.body!="")\n        pages = db(query).select(db.plugin_wiki_page.id, db.plugin_wiki_page.slug, db.plugin_wiki_page.title,\n                                 orderby=db.plugin_wiki_page.title)\n    else:\n        query = (db.plugin_wiki_page.is_active == True) & (db.plugin_wiki_page.body!="")\n        pages = db(query).select(db.plugin_wiki_page.id, db.plugin_wiki_page.slug, db.plugin_wiki_page.title,\n                                 orderby=db.plugin_wiki_page.title)\n    return dict(pages=pages)\n\n\ndef _pages_by_tag():\n      if not(request.args):\n\t redirect(URL(r=request, c=\'plugin_wiki\', f=\'pages\'))\n\n      try:\n    \ttag_id= str(request.args[0])\n\n      except (KeyError, ValueError, TypeError):\n        redirect(URL(r=request, c=\'plugin_wiki\', f=\'pages\'))\n      else:\n        if (tag_id=="0"):\n            redirect(URL(r=request, c=\'plugin_wiki\', f=\'pages\'))\n\ttag_name=db.plugin_wiki_tag(id=tag_id).name\n\t\n\tquery = ((db.plugin_wiki_page.tags.like(\'%%|%s|%%\' % tag_id)) |\n                (db.plugin_wiki_page.title.like(\'%s\' % tag_name) )) \n        pages = db(query).select(orderby =~db.plugin_wiki_page.created_on)\n        if not pages:\n\t        redirect(URL(r=request, c=\'plugin_wiki\', f=\'pages\'))\n\n        return dict(pages=pages, selected_tag=tag_name)\n\ndef _create_page():\n \tsearch_page = \'New_Page\'\n\tredirect(URL(r=request, c=\'default\', f=\'_create\', args=search_page))\n\n\ndef _page():\n    redirect(URL(r=request, c=\'plugin_wiki\', f=\'page\', args=request.args)) \n    if not request.args:\n        redirect(URL(r=request,c=\'default\' , f=\'HOME\'))\n    search_page = request.args[0] #web2py changes \' \' with \'_\' for us!\n    query = (db.plugin_wiki_page.title == search_page) & (db.plugin_wiki_page.is_active == True)\n    pages = db(query).select()\n    if not pages:\n        redirect(URL(r=request, c=\'default\', f=\'_create\', args=search_page))\n    \n    page = pages[0]\n   # response.title+= \' - \'+page.title.replace(\'_\', \' \') \n    docs = db(db.document.slug== page.slug).select(orderby=db.document.name)\n    db.comment.slug.default = page.slug\n    form_comment = crud.create(db.comment,\n                               next=URL(r=request, args=request.args))\n    form_comment[0][0][0][0] = \'\' #Delete \'Body:\'\n    coms = db(db.comment.slug == page.slug).\\\n           select(orderby=db.comment.created_by)\n    return dict(page=page, docs=docs, coms=coms, form_comment=form_comment)\n\n\n@auth.requires_membership(\'editor\')\ndef _page_history():\n    if not request.args:\n        session.flash = T(\'Invalid page\')\n        redirect(URL(r=request, c=\'plugin_wiki\', f=\'_pages\'))\n    search_page = request.args[0].replace(\'%20\', \' \')\n    pages = db(db.plugin_wiki_page.title == search_page).\\\n            select(orderby=~db.plugin_wiki_page.created_on)\n    return dict(pages=pages)\n\n\n@auth.requires_membership(\'editor\')\ndef _diff():\n    from gluon.contclw.markdown import WIKI\n    from applications.wiki.modules.diff import textDiff\n    if not request.args:\n        session.flash = T(\'Invalid page\')\n        redirect(URL(r=request, c=\'plugin_wiki\', f=\'_pages\'))\n    search_page = request.args[0].replace(\'%20\', \' \')\n    page = db(db.plugin_wiki_page.id == search_page).select()[0]\n    cpage = db(db.plugin_wiki_page.slug== page.slug)(db.plugin_wiki_page.is_active == True).select()[0]\n    return dict(difference=XML(textDiff(page.body, cpage.body)))\n\n\n@auth.requires_membership(\'editor\')\ndef _create():\n    db.plugin_wiki_page.title.requires.append(\n        IS_NOT_IN_DB(db, \'page.title\',\n                     error_message=T(\'This page titele already exists!\'))\n    )\n    form = crud.create(db.plugin_wiki_page, next=\'_pages\')\n    if len(request.args): form.custom.widget.title[\'_value\'] = request.args[0]\n\n    return dict(form=form)\n\n\n@auth.requires_membership(\'editor\')\ndef _new_document():\n    if not request.args:\n        session.flash = T(\'Invalid tag\')\n        redirect(URL(r=request, c=\'plugin_wiki\', f=\'_pages\'))\n    search_page = request.args[0].replace(\'%20\', \' \')\n    db.document.slug.default = search_page\n    form = crud.create(db.document, next=\'_pages\')\n    return dict(form=form)\n\n\n@auth.requires_membership(\'editor\')\ndef _edit_document():\n    if not request.args:\n        session.flash = T(\'Invalid document\')\n        redirect(URL(r=request, c=\'plugin_wiki\', f=\'_pages\'))\n    form = SQLFORM(db.document, request.args[0], showid=False, deletable=True)\n    if form.accepts(request.vars, session):\n        message = T(\'Document updated\') if len(request.args) else \\\n                  T(\'Document posted\')\n        session.flash = message\n        page = db(db.plugin_wiki_page.slug== form.record.slug).select()\n        if page:\n            redirect(URL(r=request,c=\'default\',  f=\'_page\', args=page[0].title))\n        else:\n            redirect(URL(r=request, c=\'default\',  f=\'index\'))\n    return dict(form=form)\n\n\n@auth.requires_membership(\'editor\')\ndef _edit_page():\n    if not request.args:\n        session.flash = T(\'Invalid page\')\n        redirect(URL(r=request, c=\'default\',  f=\'_pages\'))\n    try:\n        page_id = int(request.args(0))\n    except (ValueError, TypeError):\n        session.flash = T(\'Invalid page id\')\n        redirect(URL(r=request,c=\'default\', f=\'_pages\'))\n    else:\n        page = db.plugin_wiki_page[page_id]\n        if not page:\n            session.flash = T(\'Invalid page id\')\n            redirect(URL(r=request, c=\'plugin_wiki\', f=\'_pages\'))\n        db.plugin_wiki_page.title.default = page.title\n        db.plugin_wiki_page.title.requires = []\n        db.plugin_wiki_page.title.readable = True\n        db.plugin_wiki_page.title.writable = False\n    \n    form = SQLFORM(db.plugin_wiki_page, page_id, showid=False)\n    if FORM.accepts(form, request.vars, session):\n       db(db.plugin_wiki_page.title == form.record.title).update(is_active=False)\n       d = db.plugin_wiki_page._filter_fields(form.vars)\n       d.update(is_active=True, slug=form.record.slug)\n       page_id = db.plugin_wiki_page.insert(**d)\n       redirect(URL(r=request, c=\'default\', f=\'_page\', args=slug(db.plugin_wiki_page[page_id])))\n    return dict(form=form)\n\n\ndef _revert():\n    if not request.args:\n        session.flash = T(\'Invalid page\')\n        redirect(URL(r=request, c=\'plugin_wiki\', f=\'_pages\'))\n    try:\n        page_id = int(request.args(0))\n    except (ValueError, TypeError):\n        session.flash = T(\'Invalid page id\')\n        redirect(URL(r=request, c=\'plugin_wiki\', f=\'_pages\'))\n    else:\n        page = db.plugin_wiki_page[page_id]\n        if not page:\n            session.flash = T(\'Invalid page id\')\n            redirect(URL(r=request, c=\'plugin_wiki\', f=\'_pages\'))\n    \n    db(db.plugin_wiki_page.title == page.title).update(is_active=False)\n    db(db.plugin_wiki_page.id == page.id).update(is_active=True)\n    session.flash = T(\'Page reverted\')\n    redirect(URL(r=request, c=\'default\', f=\'_page\', args=page.title))\n\n\ndef user():\n    """\n    exposes:\n    http://..../[app]/default/user/login\n    http://..../[app]/default/user/logout\n    http://..../[app]/default/user/register\n    http://..../[app]/default/user/profile\n    http://..../[app]/default/user/retrieve_password\n    http://..../[app]/default/user/change_password\n    http://..../[app]/default/user/manage_users (requires membership in\n    use @auth.requires_login()\n        @auth.requires_membership(\'group name\')\n        @auth.requires_permission(\'read\',\'table name\',record_id)\n    to decorate functions that need access control\n    """\n\ndef user():\n\tfrom gluon.tools import Mail\n\tform=auth()\n\tif request.args(0)==\'register\':\n               if form.accepts(request.vars, session):\n                   try: \n                        mail=Mail()\n                        mail.settings.server=EMAIL_SERVER+":25"\n                        mail.settings.sender=EMAIL_SENDER\n                        mail.send(to=[EMAIL_SENDER],subject="Registration for approval",             message=\'Registration requires approval. New user email is %(email)s. Click on link to view pending requests: http://www.irca.net.au/appadmin/update/db/auth_user/registration_key/pending\'% {\'email\' : form.vars.email})\n                        session.flash=T("Your registration is being held for approval")\n\n                   except:\n\t\t    \tsession.flash=T("Mail being held for approval")\n\n                   \tredirect(URL(r=request, c=\'plugin_wiki\', f=\'index\'))\n \t    \t   db.auth_user[form.vars.id] = dict(registration_key=\'pending\')\n\t       else:\n\t\t\tform=auth.register()\n        elif request.args(0)==\'login\':\n\t\tif request.env.http_referrer:\n\n\t\t\tauth.settings.login_next =redirect(request.env.http_referrer)\n\t\treturn dict(form=auth.login())\n\n\telse:\n\t\tif request.env.http_referrer:\n    \t\t\tauth.settings.login_next =redirect(request.env.http_referrer)\n        return dict(form=form)\n\ndef _user():\n   #without layout and need to direct form to this method\n        from gluon.tools import Mail\n        form=auth()\n\tif request.args(0)==\'register\':\n                if form.accepts(request.vars, session):\n                   try:\n                        mail=Mail()\n                        mail.settings.server=EMAIL_SERVER+":25"\n                        mail.settings.sender=EMAIL_SENDER\n                        mail.send(to=[EMAIL_SENDER],subject="Registration for approval",             message=\'Registration requires approval. New user email is %(email)s. Click on link to view pending requests: http://www.irca.net.au/appadmin/update/db/auth_user/registration_key/pending\'% {\'email\' : form.vars.email})\n                        session.flash=T("Your registration is being held for approval")\n\n                   except:\n                        session.flash=T("Mail being held for approval")\n\n                        redirect(URL(r=request, c=\'plugin_wiki\', f=\'index\'))\n                   db.auth_user[form.vars.id] = dict(registration_key=\'pending\')\n\n        elif request.args(0)==\'login\':\n                if request.env.http_referrer:\n\n                        auth.settings.login_next =redirect(request.env.http_referrer)\n\t\tform=auth.login()\n\t\tredirect (URL(\'user\',args=\'login\'))\n\n        else:\n                if request.env.http_referrer:\n                        auth.settings.login_next =redirect(request.env.http_referrer)\n        return dict(form=form)\n\n\n\ndef langdownload(): return response.download(request, dblanguage)\n\n##def download(): return response.download(request, db)\n\ndef download():\n    from gluon.contenttype import contenttype\n    filename=request.args[0]\n    try:\n\ttype=request.args[1]\n    except:\n\ttype=None\n\n    response.headers[\'Content-Type\']=contenttype(filename)\n    if type:\n\treturn open(os.path.join(request.folder,\'uploads/\',\'%s/%s\' % (type, filename )),\'rb\').read()\n    else:\n        return open(os.path.join(request.folder,\'uploads/\',\'%s\' % filename),\'rb\').read()\n\ndef _download(): return response.download(request, db)\n\nimport os\nimport logging\nlogger = logging.getLogger("web2py.app.myapp")\nlogger.setLevel(logging.DEBUG)\n\n\ndef filedownload():\n    subdirectory = \'uploads/\'# directory\n    i=1\n    filename = request.args(0)\n    while(filename!=None):\n\tsubdirectory = os.path.join(subdirectory, filename)\n\tfilename = request.args(i)\n\ti+=1\n    fullpath=subdirectory\n    response.stream(os.path.join(request.folder,fullpath))\n\nimport re\ndef references():\n    subdirectory = \'applications/\'+language.title()+\'/uploads/media/docs/\'# directory\n    i=1\n    fullpath= request.args(0)\n    index=request.args(1)\n    if (index==None): index=1\n    files=[]\n    i=1\n    fullpathfile=fullpath +str(i)+\'.jpg\'\n    while (os.path.exists(os.path.join(subdirectory,fullpathfile))):\n\tfiles.append(fullpathfile)\n\ti+=1\n\tfullpathfile=fullpath+str(i)+\'.jpg\'\n    link =URL(r=request, c=\'default\',f=\'reference\', args=files[int(index)-1])\n    fullpath = re.sub(\'(.)([A-Z][a-z]+)\', r\'\\1 \\2\', fullpath)\n    fullpath=re.sub(\'([a-z0-9])([A-Z])\', r\'\\1 \\2\', fullpath)\n    return dict(link=link, filelist=fullpath, files=files, index=index)\n    #response.stream(os.path.join(request.folder, fullpath))\n\n\ndef reference():\n    subdirectory = \'uploads/media/docs/\'# directory\n    i=1\n    filename = request.args(0)\n    while(filename!=None):\n        subdirectory = os.path.join(subdirectory, filename)\n        filename = request.args(i)\n        i+=1\n    fullpath=subdirectory\n    response.stream(os.path.join(request.folder, fullpath))\n\nresponse._vars=response._caller(images)\n'
p7
sS'snapshot'
p8
(dp9
S'exception'
p10
(dp11
S'__hash__'
p12
S"<method-wrapper '__hash__' of exceptions.AttributeError object>"
p13
sS'__setattr__'
p14
S"<method-wrapper '__setattr__' of exceptions.AttributeError object>"
p15
sS'__reduce_ex__'
p16
S'<built-in method __reduce_ex__ of exceptions.AttributeError object>'
p17
sS'__getslice__'
p18
S"<method-wrapper '__getslice__' of exceptions.AttributeError object>"
p19
sS'__getitem__'
p20
S"<method-wrapper '__getitem__' of exceptions.AttributeError object>"
p21
sS'__setstate__'
p22
S'<built-in method __setstate__ of exceptions.AttributeError object>'
p23
sS'args'
p24
S'("\'NoneType\' object has no attribute \'startswith\'",)'
p25
sS'__reduce__'
p26
S'<built-in method __reduce__ of exceptions.AttributeError object>'
p27
sS'__str__'
p28
S"<method-wrapper '__str__' of exceptions.AttributeError object>"
p29
sS'__format__'
p30
S'<built-in method __format__ of exceptions.AttributeError object>'
p31
sS'__getattribute__'
p32
S"<method-wrapper '__getattribute__' of exceptions.AttributeError object>"
p33
sS'__class__'
p34
S"<type 'exceptions.AttributeError'>"
p35
sS'__unicode__'
p36
S'<built-in method __unicode__ of exceptions.AttributeError object>'
p37
sS'__delattr__'
p38
S"<method-wrapper '__delattr__' of exceptions.AttributeError object>"
p39
sS'__subclasshook__'
p40
S'<built-in method __subclasshook__ of type object>'
p41
sS'__repr__'
p42
S"<method-wrapper '__repr__' of exceptions.AttributeError object>"
p43
sS'__dict__'
p44
S'{}'
p45
sS'__sizeof__'
p46
S'<built-in method __sizeof__ of exceptions.AttributeError object>'
p47
sS'__doc__'
p48
S"'Attribute not found.'"
p49
sS'__init__'
p50
S"<method-wrapper '__init__' of exceptions.AttributeError object>"
p51
sS'__new__'
p52
S'<built-in method __new__ of type object>'
p53
ssS'evalue'
p54
S"'NoneType' object has no attribute 'startswith'"
p55
sS'request'
p56
cgluon.html
XML_unpickle
p57
(S's\xd0Z\x00\x00<div><table><tr><td style="font-weight:bold;vertical-align:top;">ajax</td><td style="vertical-align:top;">:</td><td><div>False</div></td></tr><tr><td style="font-weight:bold;vertical-align:top;">application</td><td style="vertical-align:top;">:</td><td><div>Bundjalung</div></td></tr><tr><td style="font-weight:bold;vertical-align:top;">args</td><td style="vertical-align:top;">:</td><td><div><table></table></div></td></tr><tr><td style="font-weight:bold;vertical-align:top;">cid</td><td style="vertical-align:top;">:</td><td><div>None</div></td></tr><tr><td style="font-weight:bold;vertical-align:top;">client</td><td style="vertical-align:top;">:</td><td><div>66.249.73.179</div></td></tr><tr><td style="font-weight:bold;vertical-align:top;">controller</td><td style="vertical-align:top;">:</td><td><div>default</div></td></tr><tr><td style="font-weight:bold;vertical-align:top;">cookies</td><td style="vertical-align:top;">:</td><td><div><table></table></div></td></tr><tr><td style="font-weight:bold;vertical-align:top;">env</td><td style="vertical-align:top;">:</td><td><div><table><tr><td style="font-weight:bold;vertical-align:top;">CONTEXT_DOCUMENT_ROOT</td><td style="vertical-align:top;">:</td><td><div>/home/Language/</div></td></tr><tr><td style="font-weight:bold;vertical-align:top;">CONTEXT_PREFIX</td><td style="vertical-align:top;">:</td><td><div></div></td></tr><tr><td style="font-weight:bold;vertical-align:top;">DOCUMENT_ROOT</td><td style="vertical-align:top;">:</td><td><div>/home/Language/</div></td></tr><tr><td style="font-weight:bold;vertical-align:top;">GATEWAY_INTERFACE</td><td style="vertical-align:top;">:</td><td><div>CGI/1.1</div></td></tr><tr><td style="font-weight:bold;vertical-align:top;">HTTP_ACCEPT</td><td style="vertical-align:top;">:</td><td><div>text/html,application/xhtml+xml,application/xml;q=0.9,*/*;q=0.8</div></td></tr><tr><td style="font-weight:bold;vertical-align:top;">HTTP_ACCEPT_ENCODING</td><td style="vertical-align:top;">:</td><td><div>gzip,deflate</div></td></tr><tr><td style="font-weight:bold;vertical-align:top;">HTTP_CONNECTION</td><td style="vertical-align:top;">:</td><td><div>Keep-alive</div></td></tr><tr><td style="font-weight:bold;vertical-align:top;">HTTP_FROM</td><td style="vertical-align:top;">:</td><td><div>googlebot(at)googlebot.com</div></td></tr><tr><td style="font-weight:bold;vertical-align:top;">HTTP_HOST</td><td style="vertical-align:top;">:</td><td><div>bundjalung.dalang.com.au</div></td></tr><tr><td style="font-weight:bold;vertical-align:top;">HTTP_USER_AGENT</td><td style="vertical-align:top;">:</td><td><div>Mozilla/5.0 (compatible; Googlebot/2.1; +http://www.google.com/bot.html)</div></td></tr><tr><td style="font-weight:bold;vertical-align:top;">PATH_INFO</td><td style="vertical-align:top;">:</td><td><div>/images/</div></td></tr><tr><td style="font-weight:bold;vertical-align:top;">PATH_TRANSLATED</td><td style="vertical-align:top;">:</td><td><div>/usr/local/web2py/wsgihandler.py/images/</div></td></tr><tr><td style="font-weight:bold;vertical-align:top;">QUERY_STRING</td><td style="vertical-align:top;">:</td><td><div></div></td></tr><tr><td style="font-weight:bold;vertical-align:top;">REMOTE_ADDR</td><td style="vertical-align:top;">:</td><td><div>66.249.73.179</div></td></tr><tr><td style="font-weight:bold;vertical-align:top;">REMOTE_PORT</td><td style="vertical-align:top;">:</td><td><div>58577</div></td></tr><tr><td style="font-weight:bold;vertical-align:top;">REQUEST_METHOD</td><td style="vertical-align:top;">:</td><td><div>GET</div></td></tr><tr><td style="font-weight:bold;vertical-align:top;">REQUEST_SCHEME</td><td style="vertical-align:top;">:</td><td><div>http</div></td></tr><tr><td style="font-weight:bold;vertical-align:top;">REQUEST_URI</td><td style="vertical-align:top;">:</td><td><div>/images/</div></td></tr><tr><td style="font-weight:bold;vertical-align:top;">SCRIPT_FILENAME</td><td style="vertical-align:top;">:</td><td><div>/usr/local/web2py/wsgihandler.py</div></td></tr><tr><td style="font-weight:bold;vertical-align:top;">SCRIPT_NAME</td><td style="vertical-align:top;">:</td><td><div></div></td></tr><tr><td style="font-weight:bold;vertical-align:top;">SERVER_ADDR</td><td style="vertical-align:top;">:</td><td><div>129.94.172.253</div></td></tr><tr><td style="font-weight:bold;vertical-align:top;">SERVER_ADMIN</td><td style="vertical-align:top;">:</td><td><div>ckutay@cities.com.au</div></td></tr><tr><td style="font-weight:bold;vertical-align:top;">SERVER_NAME</td><td style="vertical-align:top;">:</td><td><div>bundjalung.dalang.com.au</div></td></tr><tr><td style="font-weight:bold;vertical-align:top;">SERVER_PORT</td><td style="vertical-align:top;">:</td><td><div>80</div></td></tr><tr><td style="font-weight:bold;vertical-align:top;">SERVER_PROTOCOL</td><td style="vertical-align:top;">:</td><td><div>HTTP/1.1</div></td></tr><tr><td style="font-weight:bold;vertical-align:top;">SERVER_SIGNATURE</td><td style="vertical-align:top;">:</td><td><div></div></td></tr><tr><td style="font-weight:bold;vertical-align:top;">SERVER_SOFTWARE</td><td style="vertical-align:top;">:</td><td><div>Apache/2.4.6 (Fedora) PHP/5.4.23 mod_wsgi/3.4 Python/2.7.3</div></td></tr><tr><td style="font-weight:bold;vertical-align:top;">UNIQUE_ID</td><td style="vertical-align:top;">:</td><td><div>VNNWCUHv3Wmp--FmifjBGwAAAAk</div></td></tr><tr><td style="font-weight:bold;vertical-align:top;">app_folders</td><td style="vertical-align:top;">:</td><td><div>set([&#x27;/usr/local/web2py/applications/Dharug/&#x27;, &#x27;/usr/local/web2py/applications/admin/&#x27;, &#x27;/usr/local/web2py/applications/Bundjalung/&#x27;, &#x27;/usr/local/web2py/applications/Wiradjuri/&#x27;])</div></td></tr><tr><td style="font-weight:bold;vertical-align:top;">applications_parent</td><td style="vertical-align:top;">:</td><td><div>/usr/local/web2py</div></td></tr><tr><td style="font-weight:bold;vertical-align:top;">context_document_root</td><td style="vertical-align:top;">:</td><td><div>/home/Language/</div></td></tr><tr><td style="font-weight:bold;vertical-align:top;">context_prefix</td><td style="vertical-align:top;">:</td><td><div></div></td></tr><tr><td style="font-weight:bold;vertical-align:top;">db_sessions</td><td style="vertical-align:top;">:</td><td><div>set([&#x27;Bundjalung&#x27;, &#x27;Dharug&#x27;])</div></td></tr><tr><td style="font-weight:bold;vertical-align:top;">debugging</td><td style="vertical-align:top;">:</td><td><div>False</div></td></tr><tr><td style="font-weight:bold;vertical-align:top;">document_root</td><td style="vertical-align:top;">:</td><td><div>/home/Language/</div></td></tr><tr><td style="font-weight:bold;vertical-align:top;">domain_application</td><td style="vertical-align:top;">:</td><td><div>Bundjalung</div></td></tr><tr><td style="font-weight:bold;vertical-align:top;">domain_controller</td><td style="vertical-align:top;">:</td><td><div>None</div></td></tr><tr><td style="font-weight:bold;vertical-align:top;">domain_function</td><td style="vertical-align:top;">:</td><td><div>None</div></td></tr><tr><td style="font-weight:bold;vertical-align:top;">gateway_interface</td><td style="vertical-align:top;">:</td><td><div>CGI/1.1</div></td></tr><tr><td style="font-weight:bold;vertical-align:top;">gluon_parent</td><td style="vertical-align:top;">:</td><td><div>/usr/local/web2py</div></td></tr><tr><td style="font-weight:bold;vertical-align:top;">http_accept</td><td style="vertical-align:top;">:</td><td><div>text/html,application/xhtml+xml,application/xml;q=0.9,*/*;q=0.8</div></td></tr><tr><td style="font-weight:bold;vertical-align:top;">http_accept_encoding</td><td style="vertical-align:top;">:</td><td><div>gzip,deflate</div></td></tr><tr><td style="font-weight:bold;vertical-align:top;">http_connection</td><td style="vertical-align:top;">:</td><td><div>Keep-alive</div></td></tr><tr><td style="font-weight:bold;vertical-align:top;">http_from</td><td style="vertical-align:top;">:</td><td><div>googlebot(at)googlebot.com</div></td></tr><tr><td style="font-weight:bold;vertical-align:top;">http_host</td><td style="vertical-align:top;">:</td><td><div>bundjalung.dalang.com.au</div></td></tr><tr><td style="font-weight:bold;vertical-align:top;">http_user_agent</td><td style="vertical-align:top;">:</td><td><div>Mozilla/5.0 (compatible; Googlebot/2.1; +http://www.google.com/bot.html)</div></td></tr><tr><td style="font-weight:bold;vertical-align:top;">is_jython</td><td style="vertical-align:top;">:</td><td><div>False</div></td></tr><tr><td style="font-weight:bold;vertical-align:top;">is_pypy</td><td style="vertical-align:top;">:</td><td><div>False</div></td></tr><tr><td style="font-weight:bold;vertical-align:top;">is_source</td><td style="vertical-align:top;">:</td><td><div>True</div></td></tr><tr><td style="font-weight:bold;vertical-align:top;">local_hosts</td><td style="vertical-align:top;">:</td><td><div><table><tr><td><div>129.94.172.253</div></td></tr><tr><td><div>djurumin.cse.unsw.EDU.AU</div></td></tr><tr><td><div>::ffff:127.0.0.1</div></td></tr><tr><td><div>::1</div></td></tr><tr><td><div>djurumin.cities.org.au</div></td></tr><tr><td><div>bundjalung.dalang.com.au</div></td></tr><tr><td><div>127.0.0.1</div></td></tr></table></div></td></tr><tr><td style="font-weight:bold;vertical-align:top;">mod_wsgi.application_group</td><td style="vertical-align:top;">:</td><td><div>dalang.com.au|</div></td></tr><tr><td style="font-weight:bold;vertical-align:top;">mod_wsgi.callable_object</td><td style="vertical-align:top;">:</td><td><div>application</div></td></tr><tr><td style="font-weight:bold;vertical-align:top;">mod_wsgi.enable_sendfile</td><td style="vertical-align:top;">:</td><td><div>0</div></td></tr><tr><td style="font-weight:bold;vertical-align:top;">mod_wsgi.handler_script</td><td style="vertical-align:top;">:</td><td><div></div></td></tr><tr><td style="font-weight:bold;vertical-align:top;">mod_wsgi.input_chunked</td><td style="vertical-align:top;">:</td><td><div>0</div></td></tr><tr><td style="font-weight:bold;vertical-align:top;">mod_wsgi.listener_host</td><td style="vertical-align:top;">:</td><td><div></div></td></tr><tr><td style="font-weight:bold;vertical-align:top;">mod_wsgi.listener_port</td><td style="vertical-align:top;">:</td><td><div>80</div></td></tr><tr><td style="font-weight:bold;vertical-align:top;">mod_wsgi.process_group</td><td style="vertical-align:top;">:</td><td><div>web2py</div></td></tr><tr><td style="font-weight:bold;vertical-align:top;">mod_wsgi.queue_start</td><td style="vertical-align:top;">:</td><td><div>1423136265756046</div></td></tr><tr><td style="font-weight:bold;vertical-align:top;">mod_wsgi.request_handler</td><td style="vertical-align:top;">:</td><td><div>wsgi-script</div></td></tr><tr><td style="font-weight:bold;vertical-align:top;">mod_wsgi.script_reloading</td><td style="vertical-align:top;">:</td><td><div>1</div></td></tr><tr><td style="font-weight:bold;vertical-align:top;">mod_wsgi.version</td><td style="vertical-align:top;">:</td><td><div><table><tr><td><div>3</div></td></tr><tr><td><div>4</div></td></tr></table></div></td></tr><tr><td style="font-weight:bold;vertical-align:top;">mod_wsgi_application_group</td><td style="vertical-align:top;">:</td><td><div>dalang.com.au|</div></td></tr><tr><td style="font-weight:bold;vertical-align:top;">mod_wsgi_callable_object</td><td style="vertical-align:top;">:</td><td><div>application</div></td></tr><tr><td style="font-weight:bold;vertical-align:top;">mod_wsgi_enable_sendfile</td><td style="vertical-align:top;">:</td><td><div>0</div></td></tr><tr><td style="font-weight:bold;vertical-align:top;">mod_wsgi_handler_script</td><td style="vertical-align:top;">:</td><td><div></div></td></tr><tr><td style="font-weight:bold;vertical-align:top;">mod_wsgi_input_chunked</td><td style="vertical-align:top;">:</td><td><div>0</div></td></tr><tr><td style="font-weight:bold;vertical-align:top;">mod_wsgi_listener_host</td><td style="vertical-align:top;">:</td><td><div></div></td></tr><tr><td style="font-weight:bold;vertical-align:top;">mod_wsgi_listener_port</td><td style="vertical-align:top;">:</td><td><div>80</div></td></tr><tr><td style="font-weight:bold;vertical-align:top;">mod_wsgi_process_group</td><td style="vertical-align:top;">:</td><td><div>web2py</div></td></tr><tr><td style="font-weight:bold;vertical-align:top;">mod_wsgi_queue_start</td><td style="vertical-align:top;">:</td><td><div>1423136265756046</div></td></tr><tr><td style="font-weight:bold;vertical-align:top;">mod_wsgi_request_handler</td><td style="vertical-align:top;">:</td><td><div>wsgi-script</div></td></tr><tr><td style="font-weight:bold;vertical-align:top;">mod_wsgi_script_reloading</td><td style="vertical-align:top;">:</td><td><div>1</div></td></tr><tr><td style="font-weight:bold;vertical-align:top;">mod_wsgi_version</td><td style="vertical-align:top;">:</td><td><div><table><tr><td><div>3</div></td></tr><tr><td><div>4</div></td></tr></table></div></td></tr><tr><td style="font-weight:bold;vertical-align:top;">path_info</td><td style="vertical-align:top;">:</td><td><div>/images/</div></td></tr><tr><td style="font-weight:bold;vertical-align:top;">path_translated</td><td style="vertical-align:top;">:</td><td><div>/usr/local/web2py/wsgihandler.py/images/</div></td></tr><tr><td style="font-weight:bold;vertical-align:top;">query_string</td><td style="vertical-align:top;">:</td><td><div></div></td></tr><tr><td style="font-weight:bold;vertical-align:top;">remote_addr</td><td style="vertical-align:top;">:</td><td><div>66.249.73.179</div></td></tr><tr><td style="font-weight:bold;vertical-align:top;">remote_port</td><td style="vertical-align:top;">:</td><td><div>58577</div></td></tr><tr><td style="font-weight:bold;vertical-align:top;">request_method</td><td style="vertical-align:top;">:</td><td><div>GET</div></td></tr><tr><td style="font-weight:bold;vertical-align:top;">request_scheme</td><td style="vertical-align:top;">:</td><td><div>http</div></td></tr><tr><td style="font-weight:bold;vertical-align:top;">request_uri</td><td style="vertical-align:top;">:</td><td><div>/Bundjalung/default/images</div></td></tr><tr><td style="font-weight:bold;vertical-align:top;">script_filename</td><td style="vertical-align:top;">:</td><td><div>/usr/local/web2py/wsgihandler.py</div></td></tr><tr><td style="font-weight:bold;vertical-align:top;">script_name</td><td style="vertical-align:top;">:</td><td><div></div></td></tr><tr><td style="font-weight:bold;vertical-align:top;">server_addr</td><td style="vertical-align:top;">:</td><td><div>129.94.172.253</div></td></tr><tr><td style="font-weight:bold;vertical-align:top;">server_admin</td><td style="vertical-align:top;">:</td><td><div>ckutay@cities.com.au</div></td></tr><tr><td style="font-weight:bold;vertical-align:top;">server_name</td><td style="vertical-align:top;">:</td><td><div>bundjalung.dalang.com.au</div></td></tr><tr><td style="font-weight:bold;vertical-align:top;">server_port</td><td style="vertical-align:top;">:</td><td><div>80</div></td></tr><tr><td style="font-weight:bold;vertical-align:top;">server_protocol</td><td style="vertical-align:top;">:</td><td><div>HTTP/1.1</div></td></tr><tr><td style="font-weight:bold;vertical-align:top;">server_signature</td><td style="vertical-align:top;">:</td><td><div></div></td></tr><tr><td style="font-weight:bold;vertical-align:top;">server_software</td><td style="vertical-align:top;">:</td><td><div>Apache/2.4.6 (Fedora) PHP/5.4.23 mod_wsgi/3.4 Python/2.7.3</div></td></tr><tr><td style="font-weight:bold;vertical-align:top;">unique_id</td><td style="vertical-align:top;">:</td><td><div>VNNWCUHv3Wmp--FmifjBGwAAAAk</div></td></tr><tr><td style="font-weight:bold;vertical-align:top;">web2py_crontype</td><td style="vertical-align:top;">:</td><td><div>soft</div></td></tr><tr><td style="font-weight:bold;vertical-align:top;">web2py_original_uri</td><td style="vertical-align:top;">:</td><td><div>/images/</div></td></tr><tr><td style="font-weight:bold;vertical-align:top;">web2py_path</td><td style="vertical-align:top;">:</td><td><div>/usr/local/web2py</div></td></tr><tr><td style="font-weight:bold;vertical-align:top;">web2py_version</td><td style="vertical-align:top;">:</td><td><div>2.9.12-stable+timestamp.2015.01.17.06.11.03</div></td></tr><tr><td style="font-weight:bold;vertical-align:top;">wsgi.errors</td><td style="vertical-align:top;">:</td><td><div>&lt;mod_wsgi.Log object at 0x7fdc8e5bc770&gt;</div></td></tr><tr><td style="font-weight:bold;vertical-align:top;">wsgi.file_wrapper</td><td style="vertical-align:top;">:</td><td><div>&lt;built-in method file_wrapper of mod_wsgi.Adapter object at 0x7fdc8e9a2558&gt;</div></td></tr><tr><td style="font-weight:bold;vertical-align:top;">wsgi.input</td><td style="vertical-align:top;">:</td><td><div>&lt;mod_wsgi.Input object at 0x7fdc8e5bcc70&gt;</div></td></tr><tr><td style="font-weight:bold;vertical-align:top;">wsgi.multiprocess</td><td style="vertical-align:top;">:</td><td><div>True</div></td></tr><tr><td style="font-weight:bold;vertical-align:top;">wsgi.multithread</td><td style="vertical-align:top;">:</td><td><div>True</div></td></tr><tr><td style="font-weight:bold;vertical-align:top;">wsgi.run_once</td><td style="vertical-align:top;">:</td><td><div>False</div></td></tr><tr><td style="font-weight:bold;vertical-align:top;">wsgi.url_scheme</td><td style="vertical-align:top;">:</td><td><div>http</div></td></tr><tr><td style="font-weight:bold;vertical-align:top;">wsgi.version</td><td style="vertical-align:top;">:</td><td><div><table><tr><td><div>1</div></td></tr><tr><td><div>0</div></td></tr></table></div></td></tr><tr><td style="font-weight:bold;vertical-align:top;">wsgi_errors</td><td style="vertical-align:top;">:</td><td><div>&lt;mod_wsgi.Log object at 0x7fdc8e5bc770&gt;</div></td></tr><tr><td style="font-weight:bold;vertical-align:top;">wsgi_file_wrapper</td><td style="vertical-align:top;">:</td><td><div>&lt;built-in method file_wrapper of mod_wsgi.Adapter object at 0x7fdc8e9a2558&gt;</div></td></tr><tr><td style="font-weight:bold;vertical-align:top;">wsgi_input</td><td style="vertical-align:top;">:</td><td><div>&lt;mod_wsgi.Input object at 0x7fdc8e5bcc70&gt;</div></td></tr><tr><td style="font-weight:bold;vertical-align:top;">wsgi_multiprocess</td><td style="vertical-align:top;">:</td><td><div>True</div></td></tr><tr><td style="font-weight:bold;vertical-align:top;">wsgi_multithread</td><td style="vertical-align:top;">:</td><td><div>True</div></td></tr><tr><td style="font-weight:bold;vertical-align:top;">wsgi_run_once</td><td style="vertical-align:top;">:</td><td><div>False</div></td></tr><tr><td style="font-weight:bold;vertical-align:top;">wsgi_url_scheme</td><td style="vertical-align:top;">:</td><td><div>http</div></td></tr><tr><td style="font-weight:bold;vertical-align:top;">wsgi_version</td><td style="vertical-align:top;">:</td><td><div><table><tr><td><div>1</div></td></tr><tr><td><div>0</div></td></tr></table></div></td></tr></table></div></td></tr><tr><td style="font-weight:bold;vertical-align:top;">extension</td><td style="vertical-align:top;">:</td><td><div>html</div></td></tr><tr><td style="font-weight:bold;vertical-align:top;">folder</td><td style="vertical-align:top;">:</td><td><div>/usr/local/web2py/applications/Bundjalung/</div></td></tr><tr><td style="font-weight:bold;vertical-align:top;">function</td><td style="vertical-align:top;">:</td><td><div>images</div></td></tr><tr><td style="font-weight:bold;vertical-align:top;">global_settings</td><td style="vertical-align:top;">:</td><td><div><table><tr><td style="font-weight:bold;vertical-align:top;">app_folders</td><td style="vertical-align:top;">:</td><td><div>set([&#x27;/usr/local/web2py/applications/Dharug/&#x27;, &#x27;/usr/local/web2py/applications/admin/&#x27;, &#x27;/usr/local/web2py/applications/Bundjalung/&#x27;, &#x27;/usr/local/web2py/applications/Wiradjuri/&#x27;])</div></td></tr><tr><td style="font-weight:bold;vertical-align:top;">applications_parent</td><td style="vertical-align:top;">:</td><td><div>/usr/local/web2py</div></td></tr><tr><td style="font-weight:bold;vertical-align:top;">db_sessions</td><td style="vertical-align:top;">:</td><td><div>set([&#x27;Bundjalung&#x27;, &#x27;Dharug&#x27;])</div></td></tr><tr><td style="font-weight:bold;vertical-align:top;">debugging</td><td style="vertical-align:top;">:</td><td><div>False</div></td></tr><tr><td style="font-weight:bold;vertical-align:top;">gluon_parent</td><td style="vertical-align:top;">:</td><td><div>/usr/local/web2py</div></td></tr><tr><td style="font-weight:bold;vertical-align:top;">is_jython</td><td style="vertical-align:top;">:</td><td><div>False</div></td></tr><tr><td style="font-weight:bold;vertical-align:top;">is_pypy</td><td style="vertical-align:top;">:</td><td><div>False</div></td></tr><tr><td style="font-weight:bold;vertical-align:top;">is_source</td><td style="vertical-align:top;">:</td><td><div>True</div></td></tr><tr><td style="font-weight:bold;vertical-align:top;">local_hosts</td><td style="vertical-align:top;">:</td><td><div><table><tr><td><div>129.94.172.253</div></td></tr><tr><td><div>djurumin.cse.unsw.EDU.AU</div></td></tr><tr><td><div>::ffff:127.0.0.1</div></td></tr><tr><td><div>::1</div></td></tr><tr><td><div>djurumin.cities.org.au</div></td></tr><tr><td><div>bundjalung.dalang.com.au</div></td></tr><tr><td><div>127.0.0.1</div></td></tr></table></div></td></tr><tr><td style="font-weight:bold;vertical-align:top;">web2py_crontype</td><td style="vertical-align:top;">:</td><td><div>soft</div></td></tr><tr><td style="font-weight:bold;vertical-align:top;">web2py_version</td><td style="vertical-align:top;">:</td><td><div>2.9.12-stable+timestamp.2015.01.17.06.11.03</div></td></tr></table></div></td></tr><tr><td style="font-weight:bold;vertical-align:top;">is_https</td><td style="vertical-align:top;">:</td><td><div>False</div></td></tr><tr><td style="font-weight:bold;vertical-align:top;">is_local</td><td style="vertical-align:top;">:</td><td><div>False</div></td></tr><tr><td style="font-weight:bold;vertical-align:top;">is_restful</td><td style="vertical-align:top;">:</td><td><div>False</div></td></tr><tr><td style="font-weight:bold;vertical-align:top;">is_sheduler</td><td style="vertical-align:top;">:</td><td><div>None</div></td></tr><tr><td style="font-weight:bold;vertical-align:top;">is_shell</td><td style="vertical-align:top;">:</td><td><div>None</div></td></tr><tr><td style="font-weight:bold;vertical-align:top;">now</td><td style="vertical-align:top;">:</td><td><div>datetime.datetime(2015, 2, 5, 22, 37, 45, 757328)</div></td></tr><tr><td style="font-weight:bold;vertical-align:top;">url</td><td style="vertical-align:top;">:</td><td><div>/images/</div></td></tr><tr><td style="font-weight:bold;vertical-align:top;">utcnow</td><td style="vertical-align:top;">:</td><td><div>datetime.datetime(2015, 2, 5, 11, 37, 45, 757375)</div></td></tr><tr><td style="font-weight:bold;vertical-align:top;">uuid</td><td style="vertical-align:top;">:</td><td><div>Bundjalung/66.249.73.179.2015-02-05.22-37-45.804f3d62-a958-4219-9d35-4a8bb648e2f9</div></td></tr><tr><td style="font-weight:bold;vertical-align:top;">wsgi</td><td style="vertical-align:top;">:</td><td><div>&lt;gluon.main.LazyWSGI object at 0x7fdc8e5bcc10&gt;</div></td></tr></table></div>'
tRp58
sS'frames'
p59
(lp60
(dp61
S'file'
p62
S'/usr/local/web2py/gluon/restricted.py'
p63
sS'dump'
p64
(dp65
S'environment'
p66
S"{'A': <class 'gluon.html.A'>, 'ANY_OF': <class 'gluon.validators.ANY_OF'>, 'ASSIGNJS': <function ASSIGNJS>, 'Auth': <class 'gluon.tools.Auth'>, 'B': <class 'gluon.html.B'>, 'BEAUTIFY': <class 'gluon.html.BEAUTIFY'>, 'BODY': <class 'gluon.html.BODY'>, 'BR': <class 'gluon.html.BR'>, 'BUTTON': <class 'gluon.html.BUTTON'>, 'CAT': <class 'gluon.html.CAT'>, ...}"
p67
sS'ccode'
p68
S'<code object <module> at 0x7fdc806faab0, file "/...tions/Bundjalung/controllers/default.py", line 3>'
p69
ssS'lnum'
p70
I224
sS'lines'
p71
(dp72
I224
S'        exec ccode in environment'
p73
sI225
S'    except HTTP:'
p74
sI226
S'        raise'
p75
sI227
S'    except RestrictedError:'
p76
sI228
S'        # do not encapsulate (obfuscate) the original RestrictedError'
p77
sI219
S'    try:'
p78
sI220
S'        if isinstance(code, types.CodeType):'
p79
sI221
S'            ccode = code'
p80
sI222
S'        else:'
p81
sI223
S'            ccode = compile2(code, layer)'
p82
ssS'call'
p83
S"(code='# coding: utf-8\\n\\ndef index():\\n\\n redirect(URL(r=r...lpath))\\n\\nresponse._vars=response._caller(images)\\n', environment={'A': <class 'gluon.html.A'>, 'ANY_OF': <class 'gluon.validators.ANY_OF'>, 'ASSIGNJS': <function ASSIGNJS>, 'Auth': <class 'gluon.tools.Auth'>, 'B': <class 'gluon.html.B'>, 'BEAUTIFY': <class 'gluon.html.BEAUTIFY'>, 'BODY': <class 'gluon.html.BODY'>, 'BR': <class 'gluon.html.BR'>, 'BUTTON': <class 'gluon.html.BUTTON'>, 'CAT': <class 'gluon.html.CAT'>, ...}, layer='/usr/local/web2py/applications/Bundjalung/controllers/default.py')"
p84
sS'func'
p85
S'restricted'
p86
sa(dp87
g62
S'/usr/local/web2py/applications/Bundjalung/controllers/default.py'
p88
sg64
(dp89
sg70
I380
sg71
(dp90
I369
S'def reference():'
p91
sI370
S"    subdirectory = 'uploads/media/docs/'# directory"
p92
sI371
S'    i=1'
p93
sI372
S'    filename = request.args(0)'
p94
sI373
S'    while(filename!=None):'
p95
sI374
S'        subdirectory = os.path.join(subdirectory, filename)'
p96
sI375
S'        filename = request.args(i)'
p97
sI376
S'        i+=1'
p98
sI377
S'    fullpath=subdirectory'
p99
sI378
S'    response.stream(os.path.join(request.folder, fullpath))'
p100
ssg83
S'()'
p101
sg85
S'<module>'
p102
sa(dp103
g62
S'/usr/local/web2py/gluon/globals.py'
p104
sg64
(dp105
S'self'
p106
S'undefined'
p107
sS'f'
S'<function images>'
p108
ssg70
I393
sg71
(dp109
I388
S"        self.flash = ''            # used by the default view layout"
p110
sI389
S'        self.meta = Storage()      # used by web2py_ajax.html'
p111
sI390
S'        self.menu = []             # used by the default view layout'
p112
sI391
S'        self.files = []            # used by web2py_ajax.html'
p113
sI392
S'        self._vars = None'
p114
sI393
S'        self._caller = lambda f: f()'
p115
sI394
S'        self._view_environment = None'
p116
sI395
S'        self._custom_commit = None'
p117
sI396
S'        self._custom_rollback = None'
p118
sI397
S"        self.generic_patterns = ['*']"
p119
ssg83
S'(f=<function images>)'
p120
sg85
S'<lambda>'
p121
sa(dp122
g62
S'/usr/local/web2py/applications/Bundjalung/controllers/default.py'
p123
sg64
(dp124
S'subdirectory'
p125
S"'uploads/media/images/'"
p126
sS'filename'
p127
S'None'
p128
sS'global os'
p129
S"<module 'os' from '/usr/lib64/python2.7/os.pyc'>"
p130
sS'os.path.join'
p131
S'<function join>'
p132
sS'fullpath'
p133
g107
sS'os.path'
p134
S"<module 'posixpath' from '/usr/lib64/python2.7/posixpath.pyc'>"
p135
ssg70
I14
sg71
(dp136
I9
S"\t redirect(URL(r=request, c='plugin_wiki', f='edit_page', args=request.args))"
p137
sI10
S''
sI11
S'def images():'
p138
sI12
S"    subdirectory = 'uploads/media/images/'# directory"
p139
sI13
S'    filename = request.args(0)'
p140
sI14
S'    fullpath = os.path.join(subdirectory, filename)'
p141
sI15
S'    if request.args(1):'
p142
sI16
S'            filenameadd = request.args(1)'
p143
sI17
S'            fullpath = os.path.join(fullpath, filenameadd)'
p144
sI18
S'    logging.warn(fullpath)'
p145
ssg83
S'()'
p146
sg85
S'images'
p147
sa(dp148
g62
S'/usr/lib64/python2.7/posixpath.py'
p149
sg64
(dp150
S'b'
S'None'
p151
sS'b.startswith'
p152
g107
ssg70
I66
sg71
(dp153
I64
S'    path = a'
p154
sI65
S'    for b in p:'
p155
sI66
S"        if b.startswith('/'):"
p156
sI67
S'            path = b'
p157
sI68
S"        elif path == '' or path.endswith('/'):"
p158
sI69
S'            path +=  b'
p159
sI70
S'        else:'
p160
sI61
S'    """Join two or more pathname components, inserting \'/\' as needed.'
p161
sI62
S'    If any component is an absolute path, all previous path components'
p162
sI63
S'    will be discarded."""'
p163
ssg83
S"(a='uploads/media/images/', *p=(None,))"
p164
sg85
S'join'
p165
sasS'pyver'
p166
S'Python 2.7.3: /usr/bin/python (prefix: /usr)'
p167
sS'session'
p168
g57
(S's\x1a\x00\x00\x00<div><table></table></div>'
tRp169
sS'etype'
p170
S"<type 'exceptions.AttributeError'>"
p171
sS'date'
p172
S'Thu Feb  5 22:37:46 2015'
p173
sS'response'
p174
g57
(S's\x87(\x00\x00<div><table><tr><td style="font-weight:bold;vertical-align:top;">body</td><td style="vertical-align:top;">:</td><td><div>&lt;cStringIO.StringO object at 0x7fdc806dd180&gt;</div></td></tr><tr><td style="font-weight:bold;vertical-align:top;">cookies</td><td style="vertical-align:top;">:</td><td><div><table></table></div></td></tr><tr><td style="font-weight:bold;vertical-align:top;">delimiters</td><td style="vertical-align:top;">:</td><td><div><table><tr><td><div>{{</div></td></tr><tr><td><div>}}</div></td></tr></table></div></td></tr><tr><td style="font-weight:bold;vertical-align:top;">files</td><td style="vertical-align:top;">:</td><td><div><table><tr><td><div>/Bundjalung/static/plugin_multiselect/jquery.dimensions.js</div></td></tr><tr><td><div>/Bundjalung/static/plugin_multiselect/jquery.multiselect.js</div></td></tr><tr><td><div>/Bundjalung/static/plugin_multiselect/jquery.multiselect.css</div></td></tr></table></div></td></tr><tr><td style="font-weight:bold;vertical-align:top;">flash</td><td style="vertical-align:top;">:</td><td><div></div></td></tr><tr><td style="font-weight:bold;vertical-align:top;">form_label_separator</td><td style="vertical-align:top;">:</td><td><div>: </div></td></tr><tr><td style="font-weight:bold;vertical-align:top;">formstyle</td><td style="vertical-align:top;">:</td><td><div>table3cols</div></td></tr><tr><td style="font-weight:bold;vertical-align:top;">generic_patterns</td><td style="vertical-align:top;">:</td><td><div><table><tr><td><div>*</div></td></tr></table></div></td></tr><tr><td style="font-weight:bold;vertical-align:top;">headers</td><td style="vertical-align:top;">:</td><td><div><table><tr><td style="font-weight:bold;vertical-align:top;">X-Powered-By</td><td style="vertical-align:top;">:</td><td><div>web2py</div></td></tr></table></div></td></tr><tr><td style="font-weight:bold;vertical-align:top;">menu</td><td style="vertical-align:top;">:</td><td><div><table></table></div></td></tr><tr><td style="font-weight:bold;vertical-align:top;">menuAbout</td><td style="vertical-align:top;">:</td><td><div><table><tr><td><div><table><tr><td><div>People</div></td></tr><tr><td><div>False</div></td></tr><tr><td><div>/plugin_wiki/page/people</div></td></tr></table></div></td></tr><tr><td><div><table><tr><td><div>Traditional country</div></td></tr><tr><td><div>False</div></td></tr><tr><td><div>/plugin_wiki/page/traditional_country</div></td></tr></table></div></td></tr><tr><td><div><table><tr><td><div>Language background</div></td></tr><tr><td><div>False</div></td></tr><tr><td><div>/plugin_wiki/page/language_background</div></td></tr></table></div></td></tr><tr><td><div><table><tr><td><div>Outline of the language</div></td></tr><tr><td><div>False</div></td></tr><tr><td><div>/plugin_wiki/page/outline_of_the_language</div></td></tr></table></div></td></tr><tr><td><div><table><tr><td><div>Outline of resources</div></td></tr><tr><td><div>False</div></td></tr><tr><td><div>/plugin_wiki/page/outline_of_resources</div></td></tr></table></div></td></tr><tr><td><div><table><tr><td><div>History of the project</div></td></tr><tr><td><div>False</div></td></tr><tr><td><div>/plugin_wiki/page/history</div></td></tr></table></div></td></tr></table></div></td></tr><tr><td style="font-weight:bold;vertical-align:top;">menuLogin</td><td style="vertical-align:top;">:</td><td><div><table><tr><td><div><table><tr><td><div>Login</div></td></tr><tr><td><div>False</div></td></tr><tr><td><div>/_user/login</div></td></tr></table></div></td></tr></table></div></td></tr><tr><td style="font-weight:bold;vertical-align:top;">menuResource</td><td style="vertical-align:top;">:</td><td><div><table><tr><td><div><table><tr><td><div>Dictionary Book</div></td></tr><tr><td><div>False</div></td></tr><tr><td><div>/plugin_wiki/page/dictionary</div></td></tr></table></div></td></tr><tr><td><div><table><tr><td><div>Language Resources</div></td></tr><tr><td><div>False</div></td></tr><tr><td><div>/plugin_wiki/resources</div></td></tr></table></div></td></tr><tr><td><div><table><tr><td><div>Written examples</div></td></tr><tr><td><div>False</div></td></tr><tr><td><div>/plugin_wiki/page/written_examples_of_the_language</div></td></tr></table></div></td></tr><tr><td><div><table><tr><td><div>WorkSheets</div></td></tr><tr><td><div>False</div></td></tr><tr><td><div>/learning/pages</div></td></tr></table></div></td></tr></table></div></td></tr><tr><td style="font-weight:bold;vertical-align:top;">menuTop</td><td style="vertical-align:top;">:</td><td><div><table><tr><td><div><table><tr><td><div>Home</div></td></tr><tr><td><div>False</div></td></tr><tr><td><div>/plugin_wiki/index.html</div></td></tr></table></div></td></tr><tr><td><div><table><tr><td><div>About Us</div></td></tr><tr><td><div>False</div></td></tr><tr><td><div>/plugin_wiki/page/about_us</div></td></tr></table></div></td></tr><tr><td><div><table><tr><td><div>Dictionary</div></td></tr><tr><td><div>False</div></td></tr><tr><td><div>/language/dictionary</div></td></tr></table></div></td></tr><tr><td><div><table><tr><td><div>Resources</div></td></tr><tr><td><div>False</div></td></tr><tr><td><div>/plugin_wiki/resources</div></td></tr></table></div></td></tr><tr><td><div><table><tr><td><div>Contact</div></td></tr><tr><td><div>False</div></td></tr><tr><td><div>/plugin_wiki/contact</div></td></tr></table></div></td></tr></table></div></td></tr><tr><td style="font-weight:bold;vertical-align:top;">menu_edit</td><td style="vertical-align:top;">:</td><td><div><table><tr><td><div><table><tr><td><div>Edit</div></td></tr><tr><td><div>False</div></td></tr><tr><td><div>/admin/design/Bundjalung</div></td></tr><tr><td><div><table><tr><td><div><table><tr><td><div>Controller</div></td></tr><tr><td><div>False</div></td></tr><tr><td><div>/admin/edit/Bundjalung/controllers/default.py</div></td></tr></table></div></td></tr><tr><td><div><table><tr><td><div>View</div></td></tr><tr><td><div>False</div></td></tr><tr><td><div>/admin/edit/Bundjalung/views/default/images.html</div></td></tr></table></div></td></tr><tr><td><div><table><tr><td><div>Layout</div></td></tr><tr><td><div>False</div></td></tr><tr><td><div>/admin/edit/Bundjalung/views/layout.html</div></td></tr></table></div></td></tr><tr><td><div><table><tr><td><div>Stylesheet</div></td></tr><tr><td><div>False</div></td></tr><tr><td><div>/admin/edit/Bundjalung/static/base.css</div></td></tr></table></div></td></tr><tr><td><div><table><tr><td><div>DB Model</div></td></tr><tr><td><div>False</div></td></tr><tr><td><div>/admin/edit/Bundjalung/models/db.py</div></td></tr></table></div></td></tr><tr><td><div><table><tr><td><div>Menu Model</div></td></tr><tr><td><div>False</div></td></tr><tr><td><div>/admin/edit/Bundjalung/models/menu.py</div></td></tr></table></div></td></tr><tr><td><div><table><tr><td><div>Database</div></td></tr><tr><td><div>False</div></td></tr><tr><td><div>/appadmin</div></td></tr></table></div></td></tr></table></div></td></tr></table></div></td></tr></table></div></td></tr><tr><td style="font-weight:bold;vertical-align:top;">menu_spread</td><td style="vertical-align:top;">:</td><td><div><table><tr><td><div><table><tr><td><div>Index</div></td></tr><tr><td><div>False</div></td></tr><tr><td><div>/plugin_spreadsheet</div></td></tr><tr><td><div><table></table></div></td></tr></table></div></td></tr></table></div></td></tr><tr><td style="font-weight:bold;vertical-align:top;">meta</td><td style="vertical-align:top;">:</td><td><div><table></table></div></td></tr><tr><td style="font-weight:bold;vertical-align:top;">models_to_run</td><td style="vertical-align:top;">:</td><td><div><table><tr><td><div>^\\w+\\.py$</div></td></tr><tr><td><div>^default/\\w+\\.py$</div></td></tr><tr><td><div>^default/images/\\w+\\.py$</div></td></tr></table></div></td></tr><tr><td style="font-weight:bold;vertical-align:top;">postprocessing</td><td style="vertical-align:top;">:</td><td><div><table></table></div></td></tr><tr><td style="font-weight:bold;vertical-align:top;">session_client</td><td style="vertical-align:top;">:</td><td><div>66.249.73.179</div></td></tr><tr><td style="font-weight:bold;vertical-align:top;">session_cookie_compression_level</td><td style="vertical-align:top;">:</td><td><div>None</div></td></tr><tr><td style="font-weight:bold;vertical-align:top;">session_cookie_expires</td><td style="vertical-align:top;">:</td><td><div>None</div></td></tr><tr><td style="font-weight:bold;vertical-align:top;">session_cookie_key</td><td style="vertical-align:top;">:</td><td><div>None</div></td></tr><tr><td style="font-weight:bold;vertical-align:top;">session_data_name</td><td style="vertical-align:top;">:</td><td><div>session_data_bundjalung</div></td></tr><tr><td style="font-weight:bold;vertical-align:top;">session_db_table</td><td style="vertical-align:top;">:</td><td><div>&lt;Table web2py_session_Bundjalung (id,locked,client_ip,created_datetime,modified_datetime,unique_key,session_data)&gt;</div></td></tr><tr><td style="font-weight:bold;vertical-align:top;">session_hash</td><td style="vertical-align:top;">:</td><td><div>c0762cbf4baf7f9af97c051e7fcb8083</div></td></tr><tr><td style="font-weight:bold;vertical-align:top;">session_id</td><td style="vertical-align:top;">:</td><td><div>None</div></td></tr><tr><td style="font-weight:bold;vertical-align:top;">session_id_name</td><td style="vertical-align:top;">:</td><td><div>session_id_bundjalung</div></td></tr><tr><td style="font-weight:bold;vertical-align:top;">session_masterapp</td><td style="vertical-align:top;">:</td><td><div>Bundjalung</div></td></tr><tr><td style="font-weight:bold;vertical-align:top;">session_new</td><td style="vertical-align:top;">:</td><td><div>True</div></td></tr><tr><td style="font-weight:bold;vertical-align:top;">session_storage_type</td><td style="vertical-align:top;">:</td><td><div>db</div></td></tr><tr><td style="font-weight:bold;vertical-align:top;">start</td><td style="vertical-align:top;">:</td><td><div>True</div></td></tr><tr><td style="font-weight:bold;vertical-align:top;">status</td><td style="vertical-align:top;">:</td><td><div>200</div></td></tr><tr><td style="font-weight:bold;vertical-align:top;">title</td><td style="vertical-align:top;">:</td><td><div>Bundjalung-Yugambeh Dictionary</div></td></tr><tr><td style="font-weight:bold;vertical-align:top;">view</td><td style="vertical-align:top;">:</td><td><div>default/images.html</div></td></tr></table></div>'
tRp175
sS'locals'
p176
(dp177
S'a'
S"'uploads/media/images/'"
p178
sS'path'
p179
S"'uploads/media/images/'"
p180
sS'b'
S'None'
p181
sS'p'
S'(None,)'
p182
sssS'traceback'
p183
S'Traceback (most recent call last):\n  File "/usr/local/web2py/gluon/restricted.py", line 224, in restricted\n    exec ccode in environment\n  File "/usr/local/web2py/applications/Bundjalung/controllers/default.py", line 380, in <module>\n  File "/usr/local/web2py/gluon/globals.py", line 393, in <lambda>\n    self._caller = lambda f: f()\n  File "/usr/local/web2py/applications/Bundjalung/controllers/default.py", line 14, in images\n    fullpath = os.path.join(subdirectory, filename)\n  File "/usr/lib64/python2.7/posixpath.py", line 66, in join\n    if b.startswith(\'/\'):\nAttributeError: \'NoneType\' object has no attribute \'startswith\'\n'
p184
s.