(dp1
S'output'
p2
S"<type 'exceptions.NameError'> name 'string' is not defined"
p3
sS'layer'
p4
S'/usr/local/web2py/applications/Bundjalung/models/plugin_wiki.py'
p5
sS'code'
p6
S'# This file was developed by Massimo Di Pierro\n# It is released under BSD, MIT and GPL2 licenses\n\n###################################################\n# required parameters set by default if not set\n###################################################\ntag=None\n\nDEFAULT={\n    \'editor\' : False,\n    \'mode\'   : \'html\',    # \'markmin\' or \'html\' for wysiwyg editor\n    \'level\'  : 3,            # 1 - wiki only, 2 - widgets enables, 3 - remplate render enabled\n    \'migrate\': False,         # set to False in production\n    \'theme\'  : \'cupertino\', # the jquery-ui theme, mapped into plugin_wiki/ui/%(theme)s/jquery-ui-1.8.1.custom.css\n    \'widgets\' : \'all\',       # list of widgets to be made available\n    \'authorize_attachments\' : False # shoudl attachment be restricted to the page?\n\n}\nif auth.user:\n   DEFAULT = {\n    \'editor\' : auth.user and auth.user.Role_Name==\'editor\' or auth.user.Role_Name==\'teacher\' or auth.user_id==1, # if current user a editor?\n    \'mode\'   : \'html\',    # \'markmin\' or \'html\' for wysiwyg editor\n    \'level\'  : 3,            # 1 - wiki only, 2 - widgets enables, 3 - remplate render enabled\n    \'migrate\': False,         # set to False in production\n    \'theme\'  : \'cupertino\', # the jquery-ui theme, mapped into plugin_wiki/ui/%(theme)s/jquery-ui-1.8.1.custom.css\n    \'widgets\' : \'all\',       # list of widgets to be made available\n    \'authorize_attachments\' : False # shoudl attachment be restricted to the page?\n    }\n\n\ndef _():\n    """\n    the mambo jambo here makes sure that \n    PluginManager.wiki.xxx is also exposed as plugin_wiki_xxx\n    this is to minimize Storage lookup\n    """\n    if not \'db\' in globals() or not \'auth\' in globals():\n        raise HTTP(500,"plugin_wiki requires \'db\' and \'auth\'")\n    from gluon.tools import PluginManager\n    prefix=\'plugin_wiki_\'\n    keys=dict(item for item in DEFAULT.items() if not prefix+item[0] in globals())\n    plugins = PluginManager(\'wiki\',**keys)\n    globals().update(dict((prefix+key,keys[key]) for key in keys))\n_()\n\n\n###################################################\n# js and css modules required by the plugin\n###################################################\nfor _f in [\'plugin_wiki/kendo/css/kendo.common.min.css\',\n\t\'plugin_wiki/kendo/css/kendo.default.min.css\',\n\t\'plugin_wiki/kendo/css/kendo.dataviz.min.css\',\n\t\'plugin_wiki/kendo/css/kendo.dataviz.default.min.css\',\n\t\'plugin_wiki/kendo/css/kendo.common.min.css\',\n\t\'plugin_wiki/kendo/js/kendo.all.min.js\',\n##\t\'plugin_wiki/kendo/js/jquery.min.js\',\n]:\n#    response.files.append(URL(\'static\',_f))\n     pass\n\n\n##for _f in [\'plugin_wiki/jqgrid/css/ui.jqgrid.css\',\n##           \'plugin_wiki/jqgrid/js/i18n/grid.locale-en.js\',              \n##           \'plugin_wiki/jqgrid/js/jquery.jqGrid.min.js\',\n##           \'plugin_wiki/slideshow/jquery.cycle.min.js\',\n##\t   \'plugin_multiselect/jquery.dimensions.js\',\n##\t   \'plugin_multiselect/jquery.multiselect.js\',\n##\t   \'plugin_multiselect/jquery.multiselect.css\',\n# #          \'plugin_wiki/rating/jquery.rating.css\',\n##           \'plugin_wiki/rating/jquery.rating.js\',\n##           \'plugin_wiki/markitup/skins/markitup/style.css\',\n##\t   \'plugin_wiki/markitup/sets/markitup/style.css\',\n##\t   \'plugin_wiki/elrte-1.3/js/jquery-1.6.1.min.js\',\n##\t   \'plugin_wiki/elrte-1.3/js/jquery-ui-1.8.13.custom.min.js\',\n##\t   \'plugin_wiki/elrte-1.3/css/smoothness/jquery-ui-1.8.13.custom.css\',\n##\n##\t   \'plugin_wiki/elrte-1.3/css/elrte.full.css\',\n##\t   \'plugin_wiki/elrte-1.3/js/i18n/elrte.en.js\',\n##\t   \'plugin_wiki/elrte-1.3/css/elrte.full.css\'\n##\n\n##]:          \n##    response.files.append(URL(\'static\',_f))\n\n\ndef multiselect_widget(f,v):\n    import uuid\n    d_id = "multiselect-" + str(uuid.uuid4())[:8]\n    wrapper = DIV(_id=d_id)\n    inp = SQLFORM.widgets.options.widget(f,v)\n    inp[\'_multiple\'] = \'multiple\'\n    inp[\'_style\'] = \'min-width: %spx;\' % (len(f.name) * 20 + 50)\n    if v:\n        if not isinstance(v,list): v = str(v).split(\'|\')\n        opts = inp.elements(\'option\')\n        for op in opts:\n            if op[\'_value\'] in v:\n                op[\'_selected\'] = \'selected\'            \n    scr = SCRIPT(\'jQuery("#%s select").multiSelect({\'\\\n                 \'"Select Menu %s"});\' % (d_id,f.name))\n    wrapper.append(inp)\n    wrapper.append(scr)\n    if request.vars.get(inp[\'_id\']+\'[]\',None):\n        var = request.vars[inp[\'_id\']+\'[]\']\n        if not isinstance(var,list): var = [var]\n        request.vars[f.name] = var\n        del request.vars[inp[\'_id\']+\'[]\']\n    return wrapper\n\n\n###################################################\n# required tables\n###################################################\n\ndb.define_table(\'plugin_wiki_page\',\n                Field(\'slug\',\n                      requires=(IS_SLUG())),\n                Field(\'title\',default=\'\',\n                      requires=(IS_NOT_EMPTY(),IS_NOT_IN_DB(db,\'plugin_wiki_page.title\'))),\n                Field(\'is_public\',\'boolean\',default=True),\n                Field(\'worksheet\',string, length=1,default=\'F\'),\n                Field(\'summary\',length=500, default=""),\n\t\tField(\'body\',\'text\',default=\'\'),\n                Field(\'role\',db.auth_group,\n                      requires=IS_EMPTY_OR(IS_IN_DB(db,\'auth_group.id\',\'%(role)s\'))),\n                Field(\'tags\',\'text\'),\n                Field(\'changelog\',default=\'\'),\n\t\tField("is_active", \'boolean\', default=True),\n                auth.signature,\n                format = \'%(slug)s\', migrate=False)\n\ndb.plugin_wiki_page.slug.requires = [IS_NOT_EMPTY(), SlugValidator()]\ndb.plugin_wiki_page.tags.requires = IS_IN_DB(db, \'plugin_wiki_tag.id\', \'%(name)s\', multiple=True)\ndb.plugin_wiki_page.created_by.represent = represent_author\ndb.plugin_wiki_page.tags.widget=multiselect_widget\ndb.plugin_wiki_page.body.requires=IS_LENGTH(1000000)\n\ndb.define_table(\'plugin_wiki_page_archive\',\n                Field(\'current_record\',db.plugin_wiki_page),\n                db.plugin_wiki_page,\n                format = \'%(slug) %(modified_on)s\', migrate=plugin_wiki_migrate)\n\ndb.define_table(\'plugin_wiki_transcript\',\n                Field(\'slug\',\n                      requires=(IS_SLUG())),\n                Field(\'title\',default=\'\',\n                      requires=(IS_NOT_EMPTY(),IS_NOT_IN_DB(db,\'plugin_wiki_transcript.title\'))),\n                Field(\'is_public\',\'boolean\',default=True),\n\t\tField(\'summary\',length=500),\n                Field(\'body\',\'text\',default=\'\'),\n                Field(\'role\',db.auth_group,\n                      requires=IS_EMPTY_OR(IS_IN_DB(db,\'auth_group.id\',\'%(role)s\'))),\n                Field(\'changelog\',default=\'\'),\n\t\tField(\'is_active\', default=True),\n                auth.signature,\n                format = \'%(slug)s\', migrate=False)\n\ndb.plugin_wiki_transcript.slug.requires = [IS_NOT_EMPTY(), SlugValidator()]\ndb.plugin_wiki_transcript.created_by.represent = represent_author\ndb.plugin_wiki_transcript.body.requires=IS_LENGTH(1000000)\n\ndb.define_table(\'plugin_wiki_transcript_archive\',\n                Field(\'current_record\',db.plugin_wiki_transcript),\n                db.plugin_wiki_transcript,\n                format = \'%(slug) %(modified_on)s\', migrate=plugin_wiki_migrate)\n\ndb.define_table(\'plugin_wiki_attachment\',\n                Field(\'tablename\',writable=False,readable=False),\n                Field(\'record_id\',\'integer\',writable=False,readable=False),\n                Field(\'name\',requires=IS_NOT_EMPTY()),\n                Field(\'filename\',\'upload\',requires=IS_NOT_EMPTY(),autodelete=True),\n                auth.signature,\n                format=\'%(name)s\', migrate=plugin_wiki_migrate)\n\ndb.define_table(\'Resources\',\n                Field(\'id\', \'integer\',writable=False,readable=False),\n                Field(\'name\',\'upload\',requires=IS_NOT_EMPTY(),autodelete=True),\n                Field(\'title\',\'string\',length=100),\n                Field(\'Collected_by\',\'string\',length=100),\n\t\tField(\'desc\',\'text\'),\n\t\tField(\'Public\',\'boolean\', default=False),\n                migrate=plugin_wiki_migrate)\n\n\n\ndb.define_table(\'plugin_wiki_comment\',\n                Field(\'tablename\',\n                      writable=False,readable=False),\n                Field(\'record_id\',\'integer\',\n                      writable=False,readable=False),\n                Field(\'body\',requires=IS_NOT_EMPTY(),label=\'Your comment\'),\n                auth.signature,\n                migrate=plugin_wiki_migrate)\n\ndb.define_table(\'plugin_wiki_images\',\n                Field(\'id\',\'integer\',writable=False,readable=False),\n\t\tField(\'name\',requires=IS_NOT_EMPTY()),\n                Field(\'filename\',\'upload\',requires=IS_NOT_EMPTY(),autodelete=True),\n                auth.signature,\n                format=\'%(name)s\', migrate=plugin_wiki_migrate)\n\n\ndb.define_table(\'plugin_wiki_tag\',\n                Field(\'name\',requires=IS_NOT_IN_DB(db,\'plugin_wiki_tag.name\')),\n                Field(\'parent\',requires=(IS_IN_DB(db,\'plugin_wiki_tag.name\') )),\n\t\tauth.signature,\n                format=\'%(name)s\', migrate=plugin_wiki_migrate)\n\n\ndb.define_table(\'plugin_wiki_link\', \n                Field(\'tag\',db.plugin_wiki_tag),   \n                Field(\'table_name\'),\n                Field(\'record_id\',\'integer\'), migrate=plugin_wiki_migrate)\n\n\ndb.define_table(\'plugin_wiki_rating\',\n                Field(\'tablename\'),\n                Field(\'record_id\',\'integer\'),\n                Field(\'rating\',\'double\'),\n                Field(\'counter\',\'integer\'))\n   \n   \ndb.define_table(\'plugin_wiki_rating_aux\',\n                Field(\'master\',db.plugin_wiki_rating),\n                Field(\'rating\',\'double\'),                \n                Field(\'created_by\',db.auth_user))\n   \n   \n###################################################\n# widgets embeddable in wiki pages\n###################################################\nclass PluginWikiWidgets(object):    \n    """\n    todo:\n    toc\n    in-place-wiki-edit\n    permission managemnt\n    voting plugin\n    """\n\n    ###############################################\n    # basic crud widgets (no ajax)\n    ###############################################\n\n    @staticmethod\n    def read(table,record_id=None):\n        """\n        ## read and display a record\n        - ``table`` is the name of a table\n        - ``record_id`` is a record number\n        """\n        if not record_id: record_id=request.args(-1)\n        #if not record_id.isdigit: return XML(\'no data\')\n\tif (table!="ALC" and table !="CLW"):\n        \treturn crud.read(db[table],record_id)\n\telse:\n\t\treturn crud.read(dblanguage[table],record_id)\n    @staticmethod\n    def _set_field_attributes(table,readonly_fields=\'\',hidden_fields=\'\',default_fields=\'\'):\n        if readonly_fields: \n            for f in readonly_fields.split(\',\'):\n                db[table][f.strip()].writable=False\n        if hidden_fields: \n            for f in hidden_fields.split(\',\'):\n                db[table][f.strip()].writable=False\n                db[table][f.strip()].readable=False                \n        if default_fields:\n            for f in default_fields.split(\',\'):\n                (key,value) = f.split(\'=\')\n                db[table][key.strip()].default=value.strip()\n\n    @staticmethod\n    def create(table,message=\'\',next=\'\',readonly_fields=\'\',\n               hidden_fields=\'\',default_fields=\'\'):\n        """\n        ## display a record create form\n        - ``table`` is the name of a table\n        - ``message`` is a the message to be displayed after record is created\n        - ``next`` is where to redirect, example "page/index/[id]"\n        - ``readonly_fields`` is a list of comma separated fields\n        - ``hidden_fields`` is a list of comma separated fields \n        - ``default_fields`` is a list of comma separated "fieldname=value"\n        """\n        PluginWikiWidgets._set_field_attributes(table, readonly_fields,hidden_fields,default_fields)\n        return crud.create(db[table],message=message,next=next)\n\n    @staticmethod\n    def update(table,record_id=\'\',message=\'\',next=\'\',\n               readonly_fields=\'\',hidden_fields=\'\',default_fields=\'\'):\n        """\n        ## display a record update form\n        - ``table`` is the name of a table\n        - ``record_id`` is he record to be updated or {{=request.args(-1)}}\n        - ``message`` is a the message to be displayed after record is created\n        - ``next`` is where to redirect, example "page/index/[id]"\n        - ``readonly_fields`` is a list of comma separated fields\n        - ``hidden_fields`` is a list of comma separated fields\n        - ``default_fields`` is a list of comma separated "fieldname=value"\n        """\n\n        PluginWikiWidgets._set_field_attributes(table, readonly_fields,hidden_fields,default_fields)\n        if not record_id: record_id=request.args(-1)\n        #if not record_id.isdigit(): record_id=None\n        return crud.update(db[table],record_id,message=message,next=next)\n\n    @staticmethod\n    def select(table,query_field=\'\',query_value=\'\',fields=\'\'):\n        """\n        ## Lists all records in the table\n        - ``table`` is the name of a table\n        - ``query_field`` and ``query_value`` if present will filter records by query_field==query_value \n        - ``fields`` is a list of comma separate fields to be displayed\n        """\n        query=None\n        if query_field:\n            query = db[table][query_field]==query_value\n        if fields:\n            fields=[\'%s.%s\' % (table,f.strip()) for f in fields.split(\',\')]\n        else:\n            fields=None\n        return crud.select(db[table],query=query,fields=fields,headers=\'fieldname:capitalize\')\n\n    @staticmethod\n    def search(table,fields=\'\'):\n        """\n        ## A Widgets for selecting records\n        - ``table`` is the name of a table\n        - ``fields`` is a list of comma separated fields to be displayed\n        """\n        if fields:\n            fields=[\'%s.%s\' % (table,f.strip()) for f in fields.split(\',\')]\n        else:\n            fields=None\n        search, results = crud.search(db[table])\n        if not results: results=T(\'no results\')\n        else: results=SQLTABLE(results,fields=fields,headers=\'fieldname:capitalize\')\n        return DIV(search,results)\n\n    ###############################################\n    # advanced crud (jqgrid with ajax search)\n    ###############################################\n    @staticmethod    \n    def jqgrid(table,fieldname=None,fieldvalue=None,col_widths=\'\',\n               colnames=None,_id=None,fields=\'\',\n               col_width=80,width=700,height=300,id=None):\n        """\n        ## Embed a jqGrid plugin\n        - ``table`` is the table name\n        - ``fieldname``, ``fieldvalue`` are an optional filter (fieldname==fieldvalue)\n        - ``_id`` is the "id" of the DIV that contains the jqGrid\n        - ``fields`` is a list of columns names to be displayed\n        - ``colnames`` is a list of column headers\n        - ``col_width`` is the width of each column (default) \n        - ``height`` is the height of the jqGrid\n        - ``width`` is the width of the jqGrid\n        """\n        from gluon.serializers import json\n        _id = _id or \'jqgrid_%s\' % table\n        if not fields:\n            fields = [x.strip() for x in db[table].fields if db[table][x.strip()].readable]\n        elif isinstance(fields,str):\n            fields = [x.strip() for x in fields.split(\',\')]\n        else:\n            fields = fields\n        if col_widths:\n            if isinstance(col_widths,(list,tuple)):\n                col_widths = [str(x) for x in col_widths]\n            else:\n                col_widths = [x.strip() for x in col_widths.split(\',\')]\n\t    if width==\'auto\':\n\t\twidth=sum([int(x) for x in col_widths])\n\telif not col_widths:\n            col_widths = [col_width for x in fields]\n        if isinstance(colnames,str):\n            colnames = [x.strip() for x in colnames.split(\',\')]\n        else:\n            colnames = [(db[table][x].label or x) for x in fields]\n        colmodel = [{\'name\':x,\'index\':x, \'width\':col_widths[i], \'sortable\':True}\\\n                        for i,x in enumerate(fields)]\n        callback = URL(\'plugin_wiki\',\'jqgrid\',\n                       vars=dict(tablename=table,\n                                 columns=\',\'.join(fields),\n                                 fieldname=fieldname or \'\',\n                                 fieldvalue=fieldvalue,\n                                 ),\n                       hmac_key=auth.settings.hmac_key,\n                       salt=auth.user_id\n                       )\n        script="""\njQuery(document).ready(function(){jQuery("#%(id)s").jqGrid({ url:\'%(callback)s\', datatype: "json", colNames: %(colnames)s,colModel:%(colmodel)s, rowNum:10, rowList:[20,50,100], pager: \'#%(id)s_pager\', viewrecords: true,height:%(height)s});jQuery("#%(id)s").jqGrid(\'navGrid\',\'#%(id)s_pager\',{search:true,add:false,edit:false,del:false});jQuery("#%(id)s").setGridWidth(%(width)s,false);jQuery(\'select.ui-pg-selbox,input.ui-pg-input\').css(\'width\',\'50px\');});\n""" % dict(callback=callback,colnames=json(colnames),\n           colmodel=json(colmodel),id=_id,height=height,width=width)\n        return TAG[\'\'](TABLE(_id=_id),\n                       DIV(_id=_id+"_pager"),\n                       SCRIPT(script))\n\n    ###############################################\n    # scientific widgets (latex, charting)\n    ###############################################\n    @staticmethod\n    def latex(expression):\n        """\n        ## Uses Google charting API to embed LaTeX \n        """\n        return XML(\'<img src="http://chart.apis.google.com/chart?cht=tx&chl=%s" align="center"/>\' % expression.replace(\'"\',\'\\"\'))\n\n    @staticmethod\n    def pie_chart(data=\'1,2,3\',names=\'a,b,c\',width=300,height=150,align=\'center\'):\n        """\n        ## Uses Google charting API to embed a pie chart\n        - ``data`` is a list of comma separated values \n        - ``names`` is a list of comma separated labels (one for data item)\n        - ``width`` is the width of the image\n        - ``height`` is the height of the image\n        - ``align`` determines the alignment of the image\n        """\n        if isinstance(data,str):\n            data = data.replace(\' \',\'\')\n        elif isinstance(data,dict):\n            data = \'|\'.join(\',\'.join(str(y) for y in s) for s in data.values())\n        elif isinstance(data,list):\n            data = \',\'.join(str(y) for y in data)\n        if isinstance(names,str):\n            names = \'|\'.join(name.strip() for name in names.split(\',\'))\n        else:\n            names = \'|\'.join(name for name in names)\n        return XML(\'<img src="http://chart.apis.google.com/chart?cht=p3&chd=s:cEj9U&chs=%(width)sx%(height)s&chl=%(names)s&chd=t:%(data)s" align="%(align)s">\' % dict(data=data,width=width,height=height,names=names,align=align))\n\n    @staticmethod\n    def bar_chart(data=\'1,2,3\',names=\'a,b,c\',width=300,height=150,align=\'center\'):\n        """\n        ## Uses Google charting API to embed a bar chart\n        - ``data`` is a list of comma separated values \n        - ``names`` is a list of comma separated labels (one for data item)\n        - ``width`` is the width of the image\n        - ``height`` is the height of the image\n        - ``align`` determines the alignment of the image\n        """\n        if isinstance(data,str):\n            data = data.replace(\' \',\'\')\n        elif isinstance(data,dict):\n            data = \'|\'.join(\',\'.join(str(y) for y in s) for s in data.values())\n        elif isinstance(data,list):\n            data = \',\'.join(str(y) for y in data)\n        if isinstance(names,str):\n            names = \'|\'.join(name.strip() for name in names.split(\',\'))\n        else:\n            names = \'|\'.join(name for name in names)\n        height=int(width)/2\n        return XML(\'<img src="http://chart.apis.google.com/chart?chxt=x,y&cht=bvs&chd=s:cEj9U&chls=2.0&chs=%(width)sx%(height)s&chxl=0:|%(names)s&chd=t:%(data)s" align="%(align)s">\' % dict(data=data,width=width,height=height,names=names,align=align))\n\n    ###############################################\n    # media widgets\n    ############################################### \n    @staticmethod\n    def slideshow(links=None,table=None,field=\'image\',transition=\'fade\',width=200,height=200):\n        """\n        ## Embeds a slideshow\n        It gets the images from a table\n\n        - ``table`` is the table name\n        - ``field`` is the upload field in the table that contains images\n        - ``transition`` determines the type of transition, e.g. fade, etc.\n        - ``width`` is the width of the image\n        - ``height`` is the height of the image\n        """\n\n        import random\n        id=str(random.random())[2:]\n        if table:\n            rows = db(db[table].id>0).select()\n            if db[table][field].type==\'upload\':\n                images = [IMG(_src=URL(\'default\',\'download\',args=row[field])) for row in rows]\n            else:\n                images = [IMG(_src=row[field]) for row in rows]\n        elif links:\n            images = [IMG(_src=link) for link in links.split(\',\')]\n        else:\n            images = []\n        return DIV(SCRIPT("jQuery(document).ready(function() {jQuery(\'#slideshow%s\').cycle({fx: \'%s\'});});" % (id,transition)),DIV(_id=\'slideshow\'+id,*images))\n\n    @staticmethod\n    def youtube(code,width=400,height=250):\n        """\n        ## Embeds a youtube video (by code)\n        - ``code`` is the code of the video\n        - ``width`` is the width of the image\n        - ``height`` is the height of the image\n        """\n\n        return XML("""<object width="%(width)s" height="%(height)s"><param name="movie" value="http://www.youtube.com/v/%(code)s&hl=en_US&fs=1&"></param><param name="allowFullScreen" value="true"></param><param name="allowscriptaccess" value="always"></param><embed src="http://www.youtube.com/v/%(code)s&hl=en_US&fs=1&" type="application/x-shockwave-flash" allowscriptaccess="always" allowfullscreen="true" width="%(width)s" height="%(height)s"></embed></object>""" % dict(code=code, width=width, height=height))\n\n    @staticmethod\n    def vimeo(code,width=400,height=250):\n        """\n        ## Embeds a viemo video (by code)\n        - ``code`` is the code of the video\n        - ``width`` is the width of the image\n        - ``height`` is the height of the image\n        """\n        return XML("""<object width="%(width)s" height="%(height)s"><param name="allowfullscreen" value="true" /><param name="allowscriptaccess" value="always" /><param name="movie" value="http://vimeo.com/moogaloop.swf?clip_id=%(code)s&amp;server=vimeo.com&amp;show_title=1&amp;show_byline=1&amp;show_portrait=0&amp;color=&amp;fullscreen=1" /><embed src="http://vimeo.com/moogaloop.swf?clip_id=%(code)s&amp;server=vimeo.com&amp;show_title=1&amp;show_byline=1&amp;show_portrait=0&amp;color=&amp;fullscreen=1" type="application/x-shockwave-flash" allowfullscreen="true" allowscriptaccess="always" width="%(width)s" height="%(height)s"></embed></object>""" % dict(code=code, width=width, height=height))\n\n    @staticmethod\n    def mediaplayer(src,width=400,height=250):\n        """\n        ## Embeds a media file (such as flash video or an mp3 file)\n        - ``src`` is the src of the video\n        - ``width`` is the width of the image\n        - ``height`` is the height of the image\n        """\n        return XML(\'<embed allowfullscreen="true" allowscriptaccess="always" flashvars="height=%(height)s&width=%(width)s&file=%(src)s" height="%(height)spx" src="%(url)s" width="%(width)spx"></embed>\'%dict(url=URL(\'static\',\'plugin_wiki/mediaplayer.swf\'),src=src,width=width,height=height))\n\n    ###############################################\n    # social widgets (comments and tags)\n    ###############################################\n    @staticmethod\n    def comments(table=\'None\',record_id=None):\n        """\n        ## Embeds comments in the page\n        Comments can be linked to a table and/or a record\n\n        - ``table`` is the table name \n        - ``record_id`` is the id of the record\n        """\n        return LOAD(\'plugin_wiki\',\'comment\',\n                    args=(table,record_id or 0),ajax=True)\n\n    @staticmethod\n    def tags(table=\'None\',record_id=None):\n        """\n        ## Embeds tags in the page\n        tags can be linked to a table and/or a record\n\n        - ``table`` is the table name \n        - ``record_id`` is the id of the record\n        """\n\n        return LOAD(\'plugin_wiki\',\'tags\',\n                    args=(table,record_id or 0),ajax=True)\n\n    @staticmethod\n    def tag_cloud():\n        """\n        ## Embeds a tag cloud\n        """\n\n        return LOAD(\'plugin_wiki\',\'cloud\')\n\n\n    @staticmethod\n    def aggregator(feed, max_entries=5):\n        """\n        ## Embeds a feed aggregator\n        - ``name`` is the aggregator name\n        - ``feed`` is a list comma separated feed urls (http://rss.cbc.ca/lineup/topstories.xml)\n        - ``max_entries`` is the max number of displayed entries (default=5)\n        """\n        import gluon.contrib.feedparser as feedparser\n        lfeeds = isinstance(feeds,(str,unicode)) and feeds or feeds.split(",")\n        content = DIV(A(d.channel.title,_href=d.channel.link,_rel=d.channel.description),\n                      UL(),_id=\'web2py_aggregator\')\n        for feed in lfeeds:\n            d = feedparser.parse(feed)\n            for entry in d.entries[:max_entried]:\n                content[1] += LI(A(entry.title,\' \',SPAN(entry.updated),\n                                   _href=entry.link,_rel=entry.descstiption,\n                                   _class=web2py_aggregator_link))\n        return content\n\n    @staticmethod\n    def map(  table=\'auth_user\', width=400, height=200):\n        """\n        ## Embeds a Google map\n        Gets points on the map from a table\n        \n        - ``table`` is the table name\n        - ``width`` is the map width\n        - ``height`` is the map height\n\n        The table must have columns: latidude, longitude and map_popup.\n        When clicking on a dot, the map_popup message will appear. \n        """\n\n        import os\n        import gluon.template\n        content = open(os.path.join(request.folder,\'views\',\'plugin_wiki\',\n                                    \'map.html\'),\'rb\').read()\n        context = dict(rows=db(db[table].id>0).select(),\n                       width=\'%spx\'%width,height=\'%spx\'%height)\n        return XML(gluon.template.render(content=content,context=context))\n\n        \n\n    @staticmethod\n    def star_rating(table, record_id, splitstars=False):\n        """            \n        ## Create a star rating widget for a given record in given table.    \n        if given table has a field called \'rating\' average rating will also added to it.\n        it will save ratings from logedin users only.                        \n                       \n        - ``table`` is the table name             \n        - ``record_id`` is the id of record for which to show a rating widget.\n        - ``splitstars`` if set to True will display split stars.            \n        """\n        import uuid\n        id = uuid.uuid4()\n        row=db(db.plugin_wiki_rating.tablename==table)(db.plugin_wiki_rating.record_id==record_id).select().first()\n        rating = row.rating if row else 0\n        callback = URL(\'plugin_wiki\', \'star_rate\', args = [table,record_id])\n        incr = 0.5 if splitstars else 1\n        return TAG[\'\'](DIV(_id=\'star\'+str(id),_class=\'rating\'),\n                       SCRIPT("jQuery(document).ready(function(){jQuery(\'%(uid)s\').rating(\'%(callback)s\',{increment:%(incr)s, maxvalue:5, curvalue:%(rating)s});});" % dict(uid=\'#star\'+str(id), callback=callback,incr=incr, rating=rating)))\n\n    @staticmethod\n    def iframe(src, width=400, height=300):\n        """\n        embed a page in an <iframe></iframe>\n        """\n        return TAG.iframe(_src=src, _width=width, _height=height)\n\n    @staticmethod\n    def load_url(src):\n        """\n        loads the contenct of the url via ajax\n        and traps forms\n        """\n        return LOAD(url=src)\n    \n    @staticmethod\n    def load_action(action, controller=\'\', ajax=True):\n        """\n        loads the content of URL(request.application, controller, action) via ajax\n        and traps forms\n        """\n        return LOAD(controller, action, ajax=ajax)\n\n\n###################################################\n# main class to intantiate the widget\n###################################################\nclass PluginWiki(object):\n\n    def __init__(self):\n        import re\n        regex = re.compile(\'(?P<s> *)(?P<t>.+) +(?P<k>\\S+)\')\n        menu_page = db(db.plugin_wiki_page.slug==\'meta-menu\').select().first()\n        code_page = db(db.plugin_wiki_page.slug==\'meta-code\').select().first()\n        if code_page and request.controller==\'plugin_wiki\' and not request.function in (\'page_edit\', \'page_history\'):\n            try:\n                exec(re.sub(\'\\r\\n|\\n\\r|\\r\',\'\\n\',code_page.body.strip()),\n                     globals())\n            except Exception, e:\n                import traceback\n                if plugin_wiki_editor:\n                    response.flash = DIV(H4(\'Execution error in page _proc\'),              \n                                         PRE(traceback.format_exc()))\n                else:\n                    response.flash = \'Internal error, please contact the administrator\'\n        if menu_page:\n            response.menu=[]\n            parents = [(-1,response.menu)]\n            for line in menu_page.body.split(\'\\n\'):\n                match = regex.match(line)\n                if not match: continue\n                indent=len(match.group(\'s\'))\n                title=match.group(\'t\')\n                url=match.group(\'k\')\n                if url.lower()==\'none\':\n                    url=URL(\'plugin_wiki\',\'page\',args=request.args)\n                elif url.startswith(\'page:\'):\n                    url=URL(\'plugin_wiki\',\'page\',args=url[5:])\n                while indent<=parents[-1][0]:\n                    parents.pop()\n                newtree=[]\n                parents[-1][1].append((title,False,url,newtree)) \n                parents.append((indent,newtree))\n        self.extra = self.extra_blocks()\n\n    # this embeds page attachments\n    class attachments(object):   \n        def __init__(self,tablename,record_id=0,\n                     caption=\'Attachments\',close="Close",\n                     id=None,width=70,height=70,\n                     source=None):\n            import uuid\n            self.tablename=tablename\n            self.record_id=record_id\n            self.caption=caption\n            self.close=close\n            self.id=id or str(uuid.uuid4())\n            self.width=width\n            self.height=height\n            if not source:\n                source=URL(\'plugin_wiki\',\'attachments\',args=(tablename,record_id))\n            self.source = source\n        def xml(self):\n            return \'<div id="%(id)s" style="display:none"><div style="position:fixed;top:0%%;left:0%%;width:100%%;height:100%%;background-color:black;z-index:1001;-moz-opacity:0.8;opacity:.80;opacity:0.8;"></div><div style="position:fixed;top:%(top)s%%;left:%(left)s%%;width:%(width)s%%;height:%(height)s%%;padding:16px;border:2px solid black;background-color:white;opacity:1.0;z-index:1002;overflow:auto;-moz-border-radius: 10px; -webkit-border-radius: 10px;"><span style="font-weight:bold">%(title)s</span><span style="float:right">[<a href="#" onclick="jQuery(\\\'#%(id)s\\\').hide();return false;">%(close)s</a>]</span><hr/><div style="width:100%%;height:90%%;" id="c%(id)s"><iframe id="attachments_modal_content" style="width:100%%;height:100%%;border:0">%(loading)s</iframe></div></div></div><a href="#" onclick="jQuery(\\\'#attachments_modal_content\\\').attr(\\\'src\\\',\\\'%(source)s\\\');jQuery(\\\'#%(id)s\\\').fadeIn(); return false" id="plugin_wiki_open_attachments"">%(title)s</a>\' % dict(title=self.caption,source=self.source,close=self.close,id=self.id,left=(100-self.width)/2,top=(100-self.height)/2,width=self.width,height=self.height,loading=T(\'loading...\'))\n\n    class widget_builder(object):   \n        def __init__(self,\n                     caption=\'Widget Builder\',close="Close",\n                     id=None,width=70,height=70):\n            import uuid\n            self.caption=caption\n            self.close=close\n            self.id=id or str(uuid.uuid4())\n            self.width=width\n            self.height=height\n            self.source=URL(\'plugin_wiki\',\'widget_builder\')\n        def xml(self):\n            return \'<div id="%(id)s" style="display:none"><div style="position:fixed;top:0%%;left:0%%;width:100%%;height:100%%;background-color:black;z-index:1001;-moz-opacity:0.8;opacity:.80;opacity:0.8;"></div><div style="position:fixed;top:%(top)s%%;left:%(left)s%%;width:%(width)s%%;height:%(height)s%%;padding:16px;border:2px solid black;background-color:white;opacity:1.0;z-index:1002;overflow:auto;-moz-border-radius: 10px; -webkit-border-radius: 10px;"><span style="font-weight:bold">%(title)s</span><span style="float:right">[<a href="#" onclick="jQuery(\\\'#%(id)s\\\').hide();return false;">%(close)s</a>]</span><hr/><div style="width:100%%;height:90%%;" id="c%(id)s"><iframe id="widget_builder_modal_content" style="width:100%%;height:100%%;border:0">%(loading)s</iframe></div></div></div><a href="#" onclick="jQuery(\\\'#widget_builder_modal_content\\\').attr(\\\'src\\\',\\\'%(source)s\\\');jQuery(\\\'#%(id)s\\\').fadeIn(); return false" id="plugin_wiki_open_attachments"">%(title)s</a>\' % dict(title=self.caption,source=self.source,close=self.close,id=self.id,left=(100-self.width)/2,top=(100-self.height)/2,width=self.width,height=self.height,loading=T(\'loading...\'))\n\n    def pdf(self,text):\n        if not plugin_wiki_mode==\'markmin\':\n            raise RuntimeError, "Not supported"\n\n        response.headers[\'content-type\'] = \'application/pdf\'\n        return "Not implemented"\n\n    def render(self,text,level=plugin_wiki_level,page_url=URL()):\n        import re\n        if plugin_wiki_mode==\'html\':\n            return self.render_html(text,page_url)        \n        elif plugin_wiki_mode==\'markmin\':\n            return self.render_markmin(text,page_url)\n        else:\n            raise RuntimeError, "Not supported"\n\n    def parse_value(self,code):\n        code = code.replace(\'[page]\',request.args(0))\n        code = code.replace(\'[id]\',request.args(1) or \'\')\n        code = code.replace(\'[application]\',request.application)\n        code = code.replace(\'[client]\',request.client)\n        if plugin_wiki_level>2:\n            import gluon.template\n            return gluon.template.render(code,context=globals())\n        return code\n\n    def render_widget(self,code):        \n        try:\n            items = [x.strip().split(\':\',1) for x in code.split(\'\\n\')]\n            args = dict((item[0].strip(), self.parse_value(item[1].strip())) for item in items)\n            name = args.get(\'name\',\'\')\n            if not name or name[0]==\'_\': return \'ERROR\'\n            del args[\'name\']\n            html = getattr(PluginWikiWidgets,name)(**args)\n            if isinstance(html,str):\n                return html\n            elif html:\n                return html.xml()\n            else:\n                \'\'\n        except Exception,e:\n            if plugin_wiki_editor:\n                import traceback\n                return \'<div class="error"><pre>%s</pre></div>\' % traceback.format_exc()\n            else:\n                return \'<div class="error">system error</div>\'\n\n    def render_template(self,code):\n        import gluon.template\n        try:\n            return gluon.template.render(code,context=globals())\n        except Exception,e:\n            if plugin_wiki_editor:\n                import traceback\n                return \'<div class="error"><pre>%s</pre></div>\' % traceback.format_exc()\n            else:\n                return \'<div class="error">system error</div>\'\n\n    def extra_blocks(self):\n        extra = {}\n        LATEX = \'<img src="http://chart.apis.google.com/chart?cht=tx&chl=%s" align="center"/>\'\n        extra[\'latex\'] = lambda code: LATEX % code.replace(\'"\',\'\\"\')\n        extra[\'verbatim\'] = lambda code: cgi.escape(code)\n        extra[\'code\'] = lambda code: CODE(code,language=None).xml()\n        extra[\'code_python\'] = lambda code: CODE(code,language=\'python\').xml()\n        extra[\'code_c\'] = lambda code: CODE(code,language=\'c\').xml()\n        extra[\'code_cpp\'] = lambda code: CODE(code,language=\'cpp\').xml()\n        extra[\'code_java\'] = lambda code: CODE(code,language=\'java\').xml()\n        extra[\'code_html_plain\'] = lambda code: CODE(code,language=\'html_plain\').xml()\n        extra[\'code_html\'] = lambda code: CODE(code,language=\'html\').xml()\n        extra[\'code_web2py\'] = lambda code: CODE(code,language=\'web2py\').xml()\n        if plugin_wiki_level>1:\n            extra[\'widget\'] = lambda code: self.render_widget(code)\n        if plugin_wiki_level>2:\n            extra[\'template\'] = lambda code: self.render_template(code)\n        return extra\n\n    def render_markmin(self,text,page_url=URL()):\n        import re\n        att_url = URL(request.application,\'plugin_wiki\',\'attachment\')\n        session.plugin_wiki_attachments=[]\n        def register(match):\n            session.plugin_wiki_attachments.append(match.group(\'h\'))\n            return \'[[%s %s/%s\' % (match.group(\'t\'),att_url,match.group(\'h\'))\n        text = re.sub(\'\\[\\[(?P<t>[^\\[\\]]+)\\s+attachment:\\s*(?P<h>[\\w\\-\\.]+)\',\n                      register,text)\n        text = re.sub(\'\\[\\[(?P<t>[^\\[\\]]+) page:\',\'[[\\g<t> %s/\' % page_url,text)\n        return MARKMIN(text,extra=self.extra)\n\n    def render_html(self,text,page_url=URL()):\n        import re\n        text = text.replace(\'href="page:\',\'href="%s/\' % page_url) \n        att_url = URL(r=request,c=\'plugin_wiki\',f=\'attachment\')\n        text = text.replace(\'src="attachment:\', \'src="%s/\' % att_url)\n        regex_code = re.compile(\'``(?P<t>.*?)``:(?P<c>\\w+)\',re.S)\n        while True:\n            match=regex_code.search(text)\n            if not match:\n                break\n            if match.group(\'c\') in self.extra:\n                code = match.group(\'t\').strip().replace(\'<br>\',\'\')\n                html = self.extra[match.group(\'c\')](code)\n                text = text[:match.start()]+html+text[match.end():]\n        return XML(text,sanitize=plugin_wiki_level<2)\n\n    def embed_page(self,slug):\n        page=db(db.plugin_wiki_page.slug==slug).select().first()\n        if not page: return page\n        return XML(plugin_wiki.render(page.body))\n\n    def widget(self,name,*args,**kargs):\n        return getattr(PluginWikiWidgets,name)(*args,**kargs)\n\nplugin_wiki=PluginWiki()\n'
p7
sS'snapshot'
p8
(dp9
S'exception'
p10
(dp11
S'__hash__'
p12
S"<method-wrapper '__hash__' of exceptions.NameError object>"
p13
sS'__setattr__'
p14
S"<method-wrapper '__setattr__' of exceptions.NameError object>"
p15
sS'__reduce_ex__'
p16
S'<built-in method __reduce_ex__ of exceptions.NameError object>'
p17
sS'__getslice__'
p18
S"<method-wrapper '__getslice__' of exceptions.NameError object>"
p19
sS'__getitem__'
p20
S"<method-wrapper '__getitem__' of exceptions.NameError object>"
p21
sS'__setstate__'
p22
S'<built-in method __setstate__ of exceptions.NameError object>'
p23
sS'args'
p24
S'("name \'string\' is not defined",)'
p25
sS'__reduce__'
p26
S'<built-in method __reduce__ of exceptions.NameError object>'
p27
sS'__str__'
p28
S"<method-wrapper '__str__' of exceptions.NameError object>"
p29
sS'__format__'
p30
S'<built-in method __format__ of exceptions.NameError object>'
p31
sS'__getattribute__'
p32
S"<method-wrapper '__getattribute__' of exceptions.NameError object>"
p33
sS'__class__'
p34
S"<type 'exceptions.NameError'>"
p35
sS'__unicode__'
p36
S'<built-in method __unicode__ of exceptions.NameError object>'
p37
sS'__delattr__'
p38
S"<method-wrapper '__delattr__' of exceptions.NameError object>"
p39
sS'__subclasshook__'
p40
S'<built-in method __subclasshook__ of type object>'
p41
sS'__repr__'
p42
S"<method-wrapper '__repr__' of exceptions.NameError object>"
p43
sS'__dict__'
p44
S'{}'
p45
sS'__sizeof__'
p46
S'<built-in method __sizeof__ of exceptions.NameError object>'
p47
sS'__doc__'
p48
S"'Name not found globally.'"
p49
sS'__init__'
p50
S"<method-wrapper '__init__' of exceptions.NameError object>"
p51
sS'__new__'
p52
S'<built-in method __new__ of type object>'
p53
ssS'evalue'
p54
S"name 'string' is not defined"
p55
sS'request'
p56
cgluon.html
XML_unpickle
p57
(S's\xc1Z\x00\x00<div><table><tr><td style="font-weight:bold;vertical-align:top;">ajax</td><td style="vertical-align:top;">:</td><td><div>False</div></td></tr><tr><td style="font-weight:bold;vertical-align:top;">application</td><td style="vertical-align:top;">:</td><td><div>Bundjalung</div></td></tr><tr><td style="font-weight:bold;vertical-align:top;">args</td><td style="vertical-align:top;">:</td><td><div><table><tr><td><div>login</div></td></tr></table></div></td></tr><tr><td style="font-weight:bold;vertical-align:top;">cid</td><td style="vertical-align:top;">:</td><td><div>None</div></td></tr><tr><td style="font-weight:bold;vertical-align:top;">client</td><td style="vertical-align:top;">:</td><td><div>66.249.73.171</div></td></tr><tr><td style="font-weight:bold;vertical-align:top;">controller</td><td style="vertical-align:top;">:</td><td><div>default</div></td></tr><tr><td style="font-weight:bold;vertical-align:top;">cookies</td><td style="vertical-align:top;">:</td><td><div><table></table></div></td></tr><tr><td style="font-weight:bold;vertical-align:top;">env</td><td style="vertical-align:top;">:</td><td><div><table><tr><td style="font-weight:bold;vertical-align:top;">CONTEXT_DOCUMENT_ROOT</td><td style="vertical-align:top;">:</td><td><div>/home/Language/</div></td></tr><tr><td style="font-weight:bold;vertical-align:top;">CONTEXT_PREFIX</td><td style="vertical-align:top;">:</td><td><div></div></td></tr><tr><td style="font-weight:bold;vertical-align:top;">DOCUMENT_ROOT</td><td style="vertical-align:top;">:</td><td><div>/home/Language/</div></td></tr><tr><td style="font-weight:bold;vertical-align:top;">GATEWAY_INTERFACE</td><td style="vertical-align:top;">:</td><td><div>CGI/1.1</div></td></tr><tr><td style="font-weight:bold;vertical-align:top;">HTTP_ACCEPT</td><td style="vertical-align:top;">:</td><td><div>text/html,application/xhtml+xml,application/xml;q=0.9,*/*;q=0.8</div></td></tr><tr><td style="font-weight:bold;vertical-align:top;">HTTP_ACCEPT_ENCODING</td><td style="vertical-align:top;">:</td><td><div>gzip,deflate</div></td></tr><tr><td style="font-weight:bold;vertical-align:top;">HTTP_CONNECTION</td><td style="vertical-align:top;">:</td><td><div>Keep-alive</div></td></tr><tr><td style="font-weight:bold;vertical-align:top;">HTTP_FROM</td><td style="vertical-align:top;">:</td><td><div>googlebot(at)googlebot.com</div></td></tr><tr><td style="font-weight:bold;vertical-align:top;">HTTP_HOST</td><td style="vertical-align:top;">:</td><td><div>bundjalung.dalang.com.au</div></td></tr><tr><td style="font-weight:bold;vertical-align:top;">HTTP_USER_AGENT</td><td style="vertical-align:top;">:</td><td><div>Mozilla/5.0 (compatible; Googlebot/2.1; +http://www.google.com/bot.html)</div></td></tr><tr><td style="font-weight:bold;vertical-align:top;">PATH_INFO</td><td style="vertical-align:top;">:</td><td><div>/Bundjalung/_user/login</div></td></tr><tr><td style="font-weight:bold;vertical-align:top;">PATH_TRANSLATED</td><td style="vertical-align:top;">:</td><td><div>/usr/local/web2py/wsgihandler.py/Bundjalung/_user/login</div></td></tr><tr><td style="font-weight:bold;vertical-align:top;">QUERY_STRING</td><td style="vertical-align:top;">:</td><td><div>_next=/Bundjalung/plugin_wiki/edit_resource_transcript/Terry%2520Crowley22a</div></td></tr><tr><td style="font-weight:bold;vertical-align:top;">REMOTE_ADDR</td><td style="vertical-align:top;">:</td><td><div>66.249.73.171</div></td></tr><tr><td style="font-weight:bold;vertical-align:top;">REMOTE_PORT</td><td style="vertical-align:top;">:</td><td><div>33957</div></td></tr><tr><td style="font-weight:bold;vertical-align:top;">REQUEST_METHOD</td><td style="vertical-align:top;">:</td><td><div>GET</div></td></tr><tr><td style="font-weight:bold;vertical-align:top;">REQUEST_SCHEME</td><td style="vertical-align:top;">:</td><td><div>http</div></td></tr><tr><td style="font-weight:bold;vertical-align:top;">REQUEST_URI</td><td style="vertical-align:top;">:</td><td><div>/Bundjalung/_user/login?_next=/Bundjalung/plugin_wiki/edit_resource_transcript/Terry%2520Crowley22a</div></td></tr><tr><td style="font-weight:bold;vertical-align:top;">SCRIPT_FILENAME</td><td style="vertical-align:top;">:</td><td><div>/usr/local/web2py/wsgihandler.py</div></td></tr><tr><td style="font-weight:bold;vertical-align:top;">SCRIPT_NAME</td><td style="vertical-align:top;">:</td><td><div></div></td></tr><tr><td style="font-weight:bold;vertical-align:top;">SERVER_ADDR</td><td style="vertical-align:top;">:</td><td><div>129.94.172.253</div></td></tr><tr><td style="font-weight:bold;vertical-align:top;">SERVER_ADMIN</td><td style="vertical-align:top;">:</td><td><div>ckutay@cities.com.au</div></td></tr><tr><td style="font-weight:bold;vertical-align:top;">SERVER_NAME</td><td style="vertical-align:top;">:</td><td><div>bundjalung.dalang.com.au</div></td></tr><tr><td style="font-weight:bold;vertical-align:top;">SERVER_PORT</td><td style="vertical-align:top;">:</td><td><div>80</div></td></tr><tr><td style="font-weight:bold;vertical-align:top;">SERVER_PROTOCOL</td><td style="vertical-align:top;">:</td><td><div>HTTP/1.1</div></td></tr><tr><td style="font-weight:bold;vertical-align:top;">SERVER_SIGNATURE</td><td style="vertical-align:top;">:</td><td><div></div></td></tr><tr><td style="font-weight:bold;vertical-align:top;">SERVER_SOFTWARE</td><td style="vertical-align:top;">:</td><td><div>Apache/2.4.6 (Fedora) PHP/5.4.23 mod_wsgi/3.4 Python/2.7.3</div></td></tr><tr><td style="font-weight:bold;vertical-align:top;">UNIQUE_ID</td><td style="vertical-align:top;">:</td><td><div>VNMaG2VKdjnt4sb9wcS08AAAAAA</div></td></tr><tr><td style="font-weight:bold;vertical-align:top;">app_folders</td><td style="vertical-align:top;">:</td><td><div>set([&#x27;/usr/local/web2py/applications/Dharug/&#x27;, &#x27;/usr/local/web2py/applications/Bundjalung/&#x27;, &#x27;/usr/local/web2py/applications/Wiradjuri/&#x27;])</div></td></tr><tr><td style="font-weight:bold;vertical-align:top;">applications_parent</td><td style="vertical-align:top;">:</td><td><div>/usr/local/web2py</div></td></tr><tr><td style="font-weight:bold;vertical-align:top;">context_document_root</td><td style="vertical-align:top;">:</td><td><div>/home/Language/</div></td></tr><tr><td style="font-weight:bold;vertical-align:top;">context_prefix</td><td style="vertical-align:top;">:</td><td><div></div></td></tr><tr><td style="font-weight:bold;vertical-align:top;">db_sessions</td><td style="vertical-align:top;">:</td><td><div>set([&#x27;Bundjalung&#x27;, &#x27;Dharug&#x27;])</div></td></tr><tr><td style="font-weight:bold;vertical-align:top;">debugging</td><td style="vertical-align:top;">:</td><td><div>False</div></td></tr><tr><td style="font-weight:bold;vertical-align:top;">document_root</td><td style="vertical-align:top;">:</td><td><div>/home/Language/</div></td></tr><tr><td style="font-weight:bold;vertical-align:top;">gateway_interface</td><td style="vertical-align:top;">:</td><td><div>CGI/1.1</div></td></tr><tr><td style="font-weight:bold;vertical-align:top;">gluon_parent</td><td style="vertical-align:top;">:</td><td><div>/usr/local/web2py</div></td></tr><tr><td style="font-weight:bold;vertical-align:top;">http_accept</td><td style="vertical-align:top;">:</td><td><div>text/html,application/xhtml+xml,application/xml;q=0.9,*/*;q=0.8</div></td></tr><tr><td style="font-weight:bold;vertical-align:top;">http_accept_encoding</td><td style="vertical-align:top;">:</td><td><div>gzip,deflate</div></td></tr><tr><td style="font-weight:bold;vertical-align:top;">http_connection</td><td style="vertical-align:top;">:</td><td><div>Keep-alive</div></td></tr><tr><td style="font-weight:bold;vertical-align:top;">http_from</td><td style="vertical-align:top;">:</td><td><div>googlebot(at)googlebot.com</div></td></tr><tr><td style="font-weight:bold;vertical-align:top;">http_host</td><td style="vertical-align:top;">:</td><td><div>bundjalung.dalang.com.au</div></td></tr><tr><td style="font-weight:bold;vertical-align:top;">http_user_agent</td><td style="vertical-align:top;">:</td><td><div>Mozilla/5.0 (compatible; Googlebot/2.1; +http://www.google.com/bot.html)</div></td></tr><tr><td style="font-weight:bold;vertical-align:top;">is_jython</td><td style="vertical-align:top;">:</td><td><div>False</div></td></tr><tr><td style="font-weight:bold;vertical-align:top;">is_pypy</td><td style="vertical-align:top;">:</td><td><div>False</div></td></tr><tr><td style="font-weight:bold;vertical-align:top;">is_source</td><td style="vertical-align:top;">:</td><td><div>True</div></td></tr><tr><td style="font-weight:bold;vertical-align:top;">local_hosts</td><td style="vertical-align:top;">:</td><td><div><table><tr><td><div>129.94.172.253</div></td></tr><tr><td><div>djurumin.cse.unsw.EDU.AU</div></td></tr><tr><td><div>::ffff:127.0.0.1</div></td></tr><tr><td><div>::1</div></td></tr><tr><td><div>djurumin.cities.org.au</div></td></tr><tr><td><div>bundjalung.dalang.com.au</div></td></tr><tr><td><div>127.0.0.1</div></td></tr></table></div></td></tr><tr><td style="font-weight:bold;vertical-align:top;">mod_wsgi.application_group</td><td style="vertical-align:top;">:</td><td><div>dalang.com.au|</div></td></tr><tr><td style="font-weight:bold;vertical-align:top;">mod_wsgi.callable_object</td><td style="vertical-align:top;">:</td><td><div>application</div></td></tr><tr><td style="font-weight:bold;vertical-align:top;">mod_wsgi.enable_sendfile</td><td style="vertical-align:top;">:</td><td><div>0</div></td></tr><tr><td style="font-weight:bold;vertical-align:top;">mod_wsgi.handler_script</td><td style="vertical-align:top;">:</td><td><div></div></td></tr><tr><td style="font-weight:bold;vertical-align:top;">mod_wsgi.input_chunked</td><td style="vertical-align:top;">:</td><td><div>0</div></td></tr><tr><td style="font-weight:bold;vertical-align:top;">mod_wsgi.listener_host</td><td style="vertical-align:top;">:</td><td><div></div></td></tr><tr><td style="font-weight:bold;vertical-align:top;">mod_wsgi.listener_port</td><td style="vertical-align:top;">:</td><td><div>80</div></td></tr><tr><td style="font-weight:bold;vertical-align:top;">mod_wsgi.process_group</td><td style="vertical-align:top;">:</td><td><div>web2py</div></td></tr><tr><td style="font-weight:bold;vertical-align:top;">mod_wsgi.queue_start</td><td style="vertical-align:top;">:</td><td><div>1423120923349370</div></td></tr><tr><td style="font-weight:bold;vertical-align:top;">mod_wsgi.request_handler</td><td style="vertical-align:top;">:</td><td><div>wsgi-script</div></td></tr><tr><td style="font-weight:bold;vertical-align:top;">mod_wsgi.script_reloading</td><td style="vertical-align:top;">:</td><td><div>1</div></td></tr><tr><td style="font-weight:bold;vertical-align:top;">mod_wsgi.version</td><td style="vertical-align:top;">:</td><td><div><table><tr><td><div>3</div></td></tr><tr><td><div>4</div></td></tr></table></div></td></tr><tr><td style="font-weight:bold;vertical-align:top;">mod_wsgi_application_group</td><td style="vertical-align:top;">:</td><td><div>dalang.com.au|</div></td></tr><tr><td style="font-weight:bold;vertical-align:top;">mod_wsgi_callable_object</td><td style="vertical-align:top;">:</td><td><div>application</div></td></tr><tr><td style="font-weight:bold;vertical-align:top;">mod_wsgi_enable_sendfile</td><td style="vertical-align:top;">:</td><td><div>0</div></td></tr><tr><td style="font-weight:bold;vertical-align:top;">mod_wsgi_handler_script</td><td style="vertical-align:top;">:</td><td><div></div></td></tr><tr><td style="font-weight:bold;vertical-align:top;">mod_wsgi_input_chunked</td><td style="vertical-align:top;">:</td><td><div>0</div></td></tr><tr><td style="font-weight:bold;vertical-align:top;">mod_wsgi_listener_host</td><td style="vertical-align:top;">:</td><td><div></div></td></tr><tr><td style="font-weight:bold;vertical-align:top;">mod_wsgi_listener_port</td><td style="vertical-align:top;">:</td><td><div>80</div></td></tr><tr><td style="font-weight:bold;vertical-align:top;">mod_wsgi_process_group</td><td style="vertical-align:top;">:</td><td><div>web2py</div></td></tr><tr><td style="font-weight:bold;vertical-align:top;">mod_wsgi_queue_start</td><td style="vertical-align:top;">:</td><td><div>1423120923349370</div></td></tr><tr><td style="font-weight:bold;vertical-align:top;">mod_wsgi_request_handler</td><td style="vertical-align:top;">:</td><td><div>wsgi-script</div></td></tr><tr><td style="font-weight:bold;vertical-align:top;">mod_wsgi_script_reloading</td><td style="vertical-align:top;">:</td><td><div>1</div></td></tr><tr><td style="font-weight:bold;vertical-align:top;">mod_wsgi_version</td><td style="vertical-align:top;">:</td><td><div><table><tr><td><div>3</div></td></tr><tr><td><div>4</div></td></tr></table></div></td></tr><tr><td style="font-weight:bold;vertical-align:top;">path_info</td><td style="vertical-align:top;">:</td><td><div>/Bundjalung/_user/login</div></td></tr><tr><td style="font-weight:bold;vertical-align:top;">path_translated</td><td style="vertical-align:top;">:</td><td><div>/usr/local/web2py/wsgihandler.py/Bundjalung/_user/login</div></td></tr><tr><td style="font-weight:bold;vertical-align:top;">query_string</td><td style="vertical-align:top;">:</td><td><div>_next=/Bundjalung/plugin_wiki/edit_resource_transcript/Terry%2520Crowley22a</div></td></tr><tr><td style="font-weight:bold;vertical-align:top;">remote_addr</td><td style="vertical-align:top;">:</td><td><div>66.249.73.171</div></td></tr><tr><td style="font-weight:bold;vertical-align:top;">remote_port</td><td style="vertical-align:top;">:</td><td><div>33957</div></td></tr><tr><td style="font-weight:bold;vertical-align:top;">request_method</td><td style="vertical-align:top;">:</td><td><div>GET</div></td></tr><tr><td style="font-weight:bold;vertical-align:top;">request_scheme</td><td style="vertical-align:top;">:</td><td><div>http</div></td></tr><tr><td style="font-weight:bold;vertical-align:top;">request_uri</td><td style="vertical-align:top;">:</td><td><div>/Bundjalung/default/_user/login?_next=/Bundjalung/plugin_wiki/edit_resource_transcript/Terry%2520Crowley22a</div></td></tr><tr><td style="font-weight:bold;vertical-align:top;">script_filename</td><td style="vertical-align:top;">:</td><td><div>/usr/local/web2py/wsgihandler.py</div></td></tr><tr><td style="font-weight:bold;vertical-align:top;">script_name</td><td style="vertical-align:top;">:</td><td><div></div></td></tr><tr><td style="font-weight:bold;vertical-align:top;">server_addr</td><td style="vertical-align:top;">:</td><td><div>129.94.172.253</div></td></tr><tr><td style="font-weight:bold;vertical-align:top;">server_admin</td><td style="vertical-align:top;">:</td><td><div>ckutay@cities.com.au</div></td></tr><tr><td style="font-weight:bold;vertical-align:top;">server_name</td><td style="vertical-align:top;">:</td><td><div>bundjalung.dalang.com.au</div></td></tr><tr><td style="font-weight:bold;vertical-align:top;">server_port</td><td style="vertical-align:top;">:</td><td><div>80</div></td></tr><tr><td style="font-weight:bold;vertical-align:top;">server_protocol</td><td style="vertical-align:top;">:</td><td><div>HTTP/1.1</div></td></tr><tr><td style="font-weight:bold;vertical-align:top;">server_signature</td><td style="vertical-align:top;">:</td><td><div></div></td></tr><tr><td style="font-weight:bold;vertical-align:top;">server_software</td><td style="vertical-align:top;">:</td><td><div>Apache/2.4.6 (Fedora) PHP/5.4.23 mod_wsgi/3.4 Python/2.7.3</div></td></tr><tr><td style="font-weight:bold;vertical-align:top;">unique_id</td><td style="vertical-align:top;">:</td><td><div>VNMaG2VKdjnt4sb9wcS08AAAAAA</div></td></tr><tr><td style="font-weight:bold;vertical-align:top;">web2py_crontype</td><td style="vertical-align:top;">:</td><td><div>soft</div></td></tr><tr><td style="font-weight:bold;vertical-align:top;">web2py_original_uri</td><td style="vertical-align:top;">:</td><td><div>/Bundjalung/_user/login?_next=/Bundjalung/plugin_wiki/edit_resource_transcript/Terry%2520Crowley22a</div></td></tr><tr><td style="font-weight:bold;vertical-align:top;">web2py_path</td><td style="vertical-align:top;">:</td><td><div>/usr/local/web2py</div></td></tr><tr><td style="font-weight:bold;vertical-align:top;">web2py_version</td><td style="vertical-align:top;">:</td><td><div>2.9.12-stable+timestamp.2015.01.17.06.11.03</div></td></tr><tr><td style="font-weight:bold;vertical-align:top;">wsgi.errors</td><td style="vertical-align:top;">:</td><td><div>&lt;mod_wsgi.Log object at 0x7f9ef98e7270&gt;</div></td></tr><tr><td style="font-weight:bold;vertical-align:top;">wsgi.file_wrapper</td><td style="vertical-align:top;">:</td><td><div>&lt;built-in method file_wrapper of mod_wsgi.Adapter object at 0x7f9f07d213f0&gt;</div></td></tr><tr><td style="font-weight:bold;vertical-align:top;">wsgi.input</td><td style="vertical-align:top;">:</td><td><div>&lt;mod_wsgi.Input object at 0x7f9ef98e7530&gt;</div></td></tr><tr><td style="font-weight:bold;vertical-align:top;">wsgi.multiprocess</td><td style="vertical-align:top;">:</td><td><div>True</div></td></tr><tr><td style="font-weight:bold;vertical-align:top;">wsgi.multithread</td><td style="vertical-align:top;">:</td><td><div>True</div></td></tr><tr><td style="font-weight:bold;vertical-align:top;">wsgi.run_once</td><td style="vertical-align:top;">:</td><td><div>False</div></td></tr><tr><td style="font-weight:bold;vertical-align:top;">wsgi.url_scheme</td><td style="vertical-align:top;">:</td><td><div>http</div></td></tr><tr><td style="font-weight:bold;vertical-align:top;">wsgi.version</td><td style="vertical-align:top;">:</td><td><div><table><tr><td><div>1</div></td></tr><tr><td><div>0</div></td></tr></table></div></td></tr><tr><td style="font-weight:bold;vertical-align:top;">wsgi_errors</td><td style="vertical-align:top;">:</td><td><div>&lt;mod_wsgi.Log object at 0x7f9ef98e7270&gt;</div></td></tr><tr><td style="font-weight:bold;vertical-align:top;">wsgi_file_wrapper</td><td style="vertical-align:top;">:</td><td><div>&lt;built-in method file_wrapper of mod_wsgi.Adapter object at 0x7f9f07d213f0&gt;</div></td></tr><tr><td style="font-weight:bold;vertical-align:top;">wsgi_input</td><td style="vertical-align:top;">:</td><td><div>&lt;mod_wsgi.Input object at 0x7f9ef98e7530&gt;</div></td></tr><tr><td style="font-weight:bold;vertical-align:top;">wsgi_multiprocess</td><td style="vertical-align:top;">:</td><td><div>True</div></td></tr><tr><td style="font-weight:bold;vertical-align:top;">wsgi_multithread</td><td style="vertical-align:top;">:</td><td><div>True</div></td></tr><tr><td style="font-weight:bold;vertical-align:top;">wsgi_run_once</td><td style="vertical-align:top;">:</td><td><div>False</div></td></tr><tr><td style="font-weight:bold;vertical-align:top;">wsgi_url_scheme</td><td style="vertical-align:top;">:</td><td><div>http</div></td></tr><tr><td style="font-weight:bold;vertical-align:top;">wsgi_version</td><td style="vertical-align:top;">:</td><td><div><table><tr><td><div>1</div></td></tr><tr><td><div>0</div></td></tr></table></div></td></tr></table></div></td></tr><tr><td style="font-weight:bold;vertical-align:top;">extension</td><td style="vertical-align:top;">:</td><td><div>html</div></td></tr><tr><td style="font-weight:bold;vertical-align:top;">folder</td><td style="vertical-align:top;">:</td><td><div>/usr/local/web2py/applications/Bundjalung/</div></td></tr><tr><td style="font-weight:bold;vertical-align:top;">function</td><td style="vertical-align:top;">:</td><td><div>_user</div></td></tr><tr><td style="font-weight:bold;vertical-align:top;">global_settings</td><td style="vertical-align:top;">:</td><td><div><table><tr><td style="font-weight:bold;vertical-align:top;">app_folders</td><td style="vertical-align:top;">:</td><td><div>set([&#x27;/usr/local/web2py/applications/Dharug/&#x27;, &#x27;/usr/local/web2py/applications/Bundjalung/&#x27;, &#x27;/usr/local/web2py/applications/Wiradjuri/&#x27;])</div></td></tr><tr><td style="font-weight:bold;vertical-align:top;">applications_parent</td><td style="vertical-align:top;">:</td><td><div>/usr/local/web2py</div></td></tr><tr><td style="font-weight:bold;vertical-align:top;">db_sessions</td><td style="vertical-align:top;">:</td><td><div>set([&#x27;Bundjalung&#x27;, &#x27;Dharug&#x27;])</div></td></tr><tr><td style="font-weight:bold;vertical-align:top;">debugging</td><td style="vertical-align:top;">:</td><td><div>False</div></td></tr><tr><td style="font-weight:bold;vertical-align:top;">gluon_parent</td><td style="vertical-align:top;">:</td><td><div>/usr/local/web2py</div></td></tr><tr><td style="font-weight:bold;vertical-align:top;">is_jython</td><td style="vertical-align:top;">:</td><td><div>False</div></td></tr><tr><td style="font-weight:bold;vertical-align:top;">is_pypy</td><td style="vertical-align:top;">:</td><td><div>False</div></td></tr><tr><td style="font-weight:bold;vertical-align:top;">is_source</td><td style="vertical-align:top;">:</td><td><div>True</div></td></tr><tr><td style="font-weight:bold;vertical-align:top;">local_hosts</td><td style="vertical-align:top;">:</td><td><div><table><tr><td><div>129.94.172.253</div></td></tr><tr><td><div>djurumin.cse.unsw.EDU.AU</div></td></tr><tr><td><div>::ffff:127.0.0.1</div></td></tr><tr><td><div>::1</div></td></tr><tr><td><div>djurumin.cities.org.au</div></td></tr><tr><td><div>bundjalung.dalang.com.au</div></td></tr><tr><td><div>127.0.0.1</div></td></tr></table></div></td></tr><tr><td style="font-weight:bold;vertical-align:top;">web2py_crontype</td><td style="vertical-align:top;">:</td><td><div>soft</div></td></tr><tr><td style="font-weight:bold;vertical-align:top;">web2py_version</td><td style="vertical-align:top;">:</td><td><div>2.9.12-stable+timestamp.2015.01.17.06.11.03</div></td></tr></table></div></td></tr><tr><td style="font-weight:bold;vertical-align:top;">is_https</td><td style="vertical-align:top;">:</td><td><div>False</div></td></tr><tr><td style="font-weight:bold;vertical-align:top;">is_local</td><td style="vertical-align:top;">:</td><td><div>False</div></td></tr><tr><td style="font-weight:bold;vertical-align:top;">is_restful</td><td style="vertical-align:top;">:</td><td><div>False</div></td></tr><tr><td style="font-weight:bold;vertical-align:top;">is_sheduler</td><td style="vertical-align:top;">:</td><td><div>None</div></td></tr><tr><td style="font-weight:bold;vertical-align:top;">is_shell</td><td style="vertical-align:top;">:</td><td><div>None</div></td></tr><tr><td style="font-weight:bold;vertical-align:top;">now</td><td style="vertical-align:top;">:</td><td><div>datetime.datetime(2015, 2, 5, 18, 22, 8, 950107)</div></td></tr><tr><td style="font-weight:bold;vertical-align:top;">url</td><td style="vertical-align:top;">:</td><td><div>/Bundjalung/_user/login</div></td></tr><tr><td style="font-weight:bold;vertical-align:top;">utcnow</td><td style="vertical-align:top;">:</td><td><div>datetime.datetime(2015, 2, 5, 7, 22, 8, 950164)</div></td></tr><tr><td style="font-weight:bold;vertical-align:top;">uuid</td><td style="vertical-align:top;">:</td><td><div>Bundjalung/66.249.73.171.2015-02-05.18-22-08.a867212e-346a-4e0c-8b3d-2de658c138f8</div></td></tr><tr><td style="font-weight:bold;vertical-align:top;">wsgi</td><td style="vertical-align:top;">:</td><td><div>&lt;gluon.main.LazyWSGI object at 0x7f9ef98f4150&gt;</div></td></tr></table></div>'
tRp58
sS'frames'
p59
(lp60
(dp61
S'file'
p62
S'/usr/local/web2py/gluon/restricted.py'
p63
sS'dump'
p64
(dp65
S'environment'
p66
S"{'A': <class 'gluon.html.A'>, 'ANY_OF': <class 'gluon.validators.ANY_OF'>, 'ASSIGNJS': <function ASSIGNJS>, 'Auth': <class 'gluon.tools.Auth'>, 'B': <class 'gluon.html.B'>, 'BEAUTIFY': <class 'gluon.html.BEAUTIFY'>, 'BODY': <class 'gluon.html.BODY'>, 'BR': <class 'gluon.html.BR'>, 'BUTTON': <class 'gluon.html.BUTTON'>, 'CAT': <class 'gluon.html.CAT'>, ...}"
p67
sS'ccode'
p68
S'<code object <module> at 0x7f9ef82635b0, file "/...ations/Bundjalung/models/plugin_wiki.py", line 7>'
p69
ssS'lnum'
p70
I224
sS'lines'
p71
(dp72
I224
S'        exec ccode in environment'
p73
sI225
S'    except HTTP:'
p74
sI226
S'        raise'
p75
sI227
S'    except RestrictedError:'
p76
sI228
S'        # do not encapsulate (obfuscate) the original RestrictedError'
p77
sI219
S'    try:'
p78
sI220
S'        if isinstance(code, types.CodeType):'
p79
sI221
S'            ccode = code'
p80
sI222
S'        else:'
p81
sI223
S'            ccode = compile2(code, layer)'
p82
ssS'call'
p83
S"(code='# This file was developed by Massimo Di Pierro\\n#...s,name)(*args,**kargs)\\n\\nplugin_wiki=PluginWiki()\\n', environment={'A': <class 'gluon.html.A'>, 'ANY_OF': <class 'gluon.validators.ANY_OF'>, 'ASSIGNJS': <function ASSIGNJS>, 'Auth': <class 'gluon.tools.Auth'>, 'B': <class 'gluon.html.B'>, 'BEAUTIFY': <class 'gluon.html.BEAUTIFY'>, 'BODY': <class 'gluon.html.BODY'>, 'BR': <class 'gluon.html.BR'>, 'BUTTON': <class 'gluon.html.BUTTON'>, 'CAT': <class 'gluon.html.CAT'>, ...}, layer='/usr/local/web2py/applications/Bundjalung/models/plugin_wiki.py')"
p84
sS'func'
p85
S'restricted'
p86
sa(dp87
g62
S'/usr/local/web2py/applications/Bundjalung/models/plugin_wiki.py'
p88
sg64
(dp89
S'default'
p90
S'0'
sS'Field'
p91
S"<class 'gluon.dal.objects.Field'>"
p92
sS'length'
p93
S'undefined'
p94
sS'string'
p95
g94
ssg70
I121
sg71
(dp96
I116
S"                Field('slug',"
p97
sI117
S'                      requires=(IS_SLUG())),'
p98
sI118
S"                Field('title',default='',"
p99
sI119
S"                      requires=(IS_NOT_EMPTY(),IS_NOT_IN_DB(db,'plugin_wiki_page.title'))),"
p100
sI120
S"                Field('is_public','boolean',default=True),"
p101
sI121
S"                Field('worksheet',string, length=1,default='F'),"
p102
sI122
S'                Field(\'summary\',length=500, default=""),'
p103
sI123
S"\t\tField('body','text',default=''),"
p104
sI124
S"                Field('role',db.auth_group,"
p105
sI125
S"                      requires=IS_EMPTY_OR(IS_IN_DB(db,'auth_group.id','%(role)s'))),"
p106
ssg83
S'()'
p107
sg85
S'<module>'
p108
sasS'pyver'
p109
S'Python 2.7.3: /usr/bin/python (prefix: /usr)'
p110
sS'session'
p111
g57
(S's\x1a\x00\x00\x00<div><table></table></div>'
tRp112
sS'etype'
p113
S"<type 'exceptions.NameError'>"
p114
sS'date'
p115
S'Thu Feb  5 18:22:19 2015'
p116
sS'response'
p117
g57
(S'sJ)\x00\x00<div><table><tr><td style="font-weight:bold;vertical-align:top;">body</td><td style="vertical-align:top;">:</td><td><div>&lt;cStringIO.StringO object at 0x7f9ef86096f8&gt;</div></td></tr><tr><td style="font-weight:bold;vertical-align:top;">cookies</td><td style="vertical-align:top;">:</td><td><div><table></table></div></td></tr><tr><td style="font-weight:bold;vertical-align:top;">delimiters</td><td style="vertical-align:top;">:</td><td><div><table><tr><td><div>{{</div></td></tr><tr><td><div>}}</div></td></tr></table></div></td></tr><tr><td style="font-weight:bold;vertical-align:top;">files</td><td style="vertical-align:top;">:</td><td><div><table><tr><td><div>/Bundjalung/static/plugin_multiselect/jquery.dimensions.js</div></td></tr><tr><td><div>/Bundjalung/static/plugin_multiselect/jquery.multiselect.js</div></td></tr><tr><td><div>/Bundjalung/static/plugin_multiselect/jquery.multiselect.css</div></td></tr></table></div></td></tr><tr><td style="font-weight:bold;vertical-align:top;">flash</td><td style="vertical-align:top;">:</td><td><div></div></td></tr><tr><td style="font-weight:bold;vertical-align:top;">form_label_separator</td><td style="vertical-align:top;">:</td><td><div>: </div></td></tr><tr><td style="font-weight:bold;vertical-align:top;">formstyle</td><td style="vertical-align:top;">:</td><td><div>table3cols</div></td></tr><tr><td style="font-weight:bold;vertical-align:top;">generic_patterns</td><td style="vertical-align:top;">:</td><td><div><table><tr><td><div>*</div></td></tr></table></div></td></tr><tr><td style="font-weight:bold;vertical-align:top;">headers</td><td style="vertical-align:top;">:</td><td><div><table><tr><td style="font-weight:bold;vertical-align:top;">X-Powered-By</td><td style="vertical-align:top;">:</td><td><div>web2py</div></td></tr></table></div></td></tr><tr><td style="font-weight:bold;vertical-align:top;">menu</td><td style="vertical-align:top;">:</td><td><div><table></table></div></td></tr><tr><td style="font-weight:bold;vertical-align:top;">menuAbout</td><td style="vertical-align:top;">:</td><td><div><table><tr><td><div><table><tr><td><div>People</div></td></tr><tr><td><div>False</div></td></tr><tr><td><div>/Bundjalung/plugin_wiki/page/people</div></td></tr></table></div></td></tr><tr><td><div><table><tr><td><div>Traditional country</div></td></tr><tr><td><div>False</div></td></tr><tr><td><div>/Bundjalung/plugin_wiki/page/traditional_country</div></td></tr></table></div></td></tr><tr><td><div><table><tr><td><div>Language background</div></td></tr><tr><td><div>False</div></td></tr><tr><td><div>/Bundjalung/plugin_wiki/page/language_background</div></td></tr></table></div></td></tr><tr><td><div><table><tr><td><div>Outline of the language</div></td></tr><tr><td><div>False</div></td></tr><tr><td><div>/Bundjalung/plugin_wiki/page/outline_of_the_language</div></td></tr></table></div></td></tr><tr><td><div><table><tr><td><div>Outline of resources</div></td></tr><tr><td><div>False</div></td></tr><tr><td><div>/Bundjalung/plugin_wiki/page/outline_of_resources</div></td></tr></table></div></td></tr><tr><td><div><table><tr><td><div>History of the project</div></td></tr><tr><td><div>False</div></td></tr><tr><td><div>/Bundjalung/plugin_wiki/page/history</div></td></tr></table></div></td></tr></table></div></td></tr><tr><td style="font-weight:bold;vertical-align:top;">menuLogin</td><td style="vertical-align:top;">:</td><td><div><table><tr><td><div><table><tr><td><div>Login</div></td></tr><tr><td><div>False</div></td></tr><tr><td><div>/Bundjalung/_user/login</div></td></tr></table></div></td></tr></table></div></td></tr><tr><td style="font-weight:bold;vertical-align:top;">menuResource</td><td style="vertical-align:top;">:</td><td><div><table><tr><td><div><table><tr><td><div>Dictionary Book</div></td></tr><tr><td><div>False</div></td></tr><tr><td><div>/Bundjalung/plugin_wiki/page/dictionary</div></td></tr></table></div></td></tr><tr><td><div><table><tr><td><div>Language Resources</div></td></tr><tr><td><div>False</div></td></tr><tr><td><div>/Bundjalung/plugin_wiki/resources</div></td></tr></table></div></td></tr><tr><td><div><table><tr><td><div>Written examples</div></td></tr><tr><td><div>False</div></td></tr><tr><td><div>/Bundjalung/plugin_wiki/page/written_examples_of_the_language</div></td></tr></table></div></td></tr><tr><td><div><table><tr><td><div>WorkSheets</div></td></tr><tr><td><div>False</div></td></tr><tr><td><div>/Bundjalung/learning/pages</div></td></tr></table></div></td></tr></table></div></td></tr><tr><td style="font-weight:bold;vertical-align:top;">menuTop</td><td style="vertical-align:top;">:</td><td><div><table><tr><td><div><table><tr><td><div>Home</div></td></tr><tr><td><div>False</div></td></tr><tr><td><div>/Bundjalung/plugin_wiki/index.html</div></td></tr></table></div></td></tr><tr><td><div><table><tr><td><div>About Us</div></td></tr><tr><td><div>False</div></td></tr><tr><td><div>/Bundjalung/plugin_wiki/page/about_us</div></td></tr></table></div></td></tr><tr><td><div><table><tr><td><div>Dictionary</div></td></tr><tr><td><div>False</div></td></tr><tr><td><div>/Bundjalung/language/dictionary</div></td></tr></table></div></td></tr><tr><td><div><table><tr><td><div>Resources</div></td></tr><tr><td><div>False</div></td></tr><tr><td><div>/Bundjalung/plugin_wiki/resources</div></td></tr></table></div></td></tr><tr><td><div><table><tr><td><div>Contact</div></td></tr><tr><td><div>False</div></td></tr><tr><td><div>/Bundjalung/plugin_wiki/contact</div></td></tr></table></div></td></tr></table></div></td></tr><tr><td style="font-weight:bold;vertical-align:top;">menu_edit</td><td style="vertical-align:top;">:</td><td><div><table><tr><td><div><table><tr><td><div>Edit</div></td></tr><tr><td><div>False</div></td></tr><tr><td><div>/admin/design/Bundjalung</div></td></tr><tr><td><div><table><tr><td><div><table><tr><td><div>Controller</div></td></tr><tr><td><div>False</div></td></tr><tr><td><div>/admin/edit/Bundjalung/controllers/default.py</div></td></tr></table></div></td></tr><tr><td><div><table><tr><td><div>View</div></td></tr><tr><td><div>False</div></td></tr><tr><td><div>/admin/edit/Bundjalung/views/default/_user.html</div></td></tr></table></div></td></tr><tr><td><div><table><tr><td><div>Layout</div></td></tr><tr><td><div>False</div></td></tr><tr><td><div>/admin/edit/Bundjalung/views/layout.html</div></td></tr></table></div></td></tr><tr><td><div><table><tr><td><div>Stylesheet</div></td></tr><tr><td><div>False</div></td></tr><tr><td><div>/admin/edit/Bundjalung/static/base.css</div></td></tr></table></div></td></tr><tr><td><div><table><tr><td><div>DB Model</div></td></tr><tr><td><div>False</div></td></tr><tr><td><div>/admin/edit/Bundjalung/models/db.py</div></td></tr></table></div></td></tr><tr><td><div><table><tr><td><div>Menu Model</div></td></tr><tr><td><div>False</div></td></tr><tr><td><div>/admin/edit/Bundjalung/models/menu.py</div></td></tr></table></div></td></tr><tr><td><div><table><tr><td><div>Database</div></td></tr><tr><td><div>False</div></td></tr><tr><td><div>/Bundjalung/appadmin</div></td></tr></table></div></td></tr></table></div></td></tr></table></div></td></tr></table></div></td></tr><tr><td style="font-weight:bold;vertical-align:top;">menu_spread</td><td style="vertical-align:top;">:</td><td><div><table><tr><td><div><table><tr><td><div>Index</div></td></tr><tr><td><div>False</div></td></tr><tr><td><div>/Bundjalung/plugin_spreadsheet</div></td></tr><tr><td><div><table></table></div></td></tr></table></div></td></tr></table></div></td></tr><tr><td style="font-weight:bold;vertical-align:top;">meta</td><td style="vertical-align:top;">:</td><td><div><table></table></div></td></tr><tr><td style="font-weight:bold;vertical-align:top;">models_to_run</td><td style="vertical-align:top;">:</td><td><div><table><tr><td><div>^\\w+\\.py$</div></td></tr><tr><td><div>^default/\\w+\\.py$</div></td></tr><tr><td><div>^default/_user/\\w+\\.py$</div></td></tr></table></div></td></tr><tr><td style="font-weight:bold;vertical-align:top;">postprocessing</td><td style="vertical-align:top;">:</td><td><div><table></table></div></td></tr><tr><td style="font-weight:bold;vertical-align:top;">session_client</td><td style="vertical-align:top;">:</td><td><div>66.249.73.171</div></td></tr><tr><td style="font-weight:bold;vertical-align:top;">session_cookie_compression_level</td><td style="vertical-align:top;">:</td><td><div>None</div></td></tr><tr><td style="font-weight:bold;vertical-align:top;">session_cookie_expires</td><td style="vertical-align:top;">:</td><td><div>None</div></td></tr><tr><td style="font-weight:bold;vertical-align:top;">session_cookie_key</td><td style="vertical-align:top;">:</td><td><div>None</div></td></tr><tr><td style="font-weight:bold;vertical-align:top;">session_data_name</td><td style="vertical-align:top;">:</td><td><div>session_data_bundjalung</div></td></tr><tr><td style="font-weight:bold;vertical-align:top;">session_db_table</td><td style="vertical-align:top;">:</td><td><div>&lt;Table web2py_session_Bundjalung (id,locked,client_ip,created_datetime,modified_datetime,unique_key,session_data)&gt;</div></td></tr><tr><td style="font-weight:bold;vertical-align:top;">session_hash</td><td style="vertical-align:top;">:</td><td><div>c0762cbf4baf7f9af97c051e7fcb8083</div></td></tr><tr><td style="font-weight:bold;vertical-align:top;">session_id</td><td style="vertical-align:top;">:</td><td><div>None</div></td></tr><tr><td style="font-weight:bold;vertical-align:top;">session_id_name</td><td style="vertical-align:top;">:</td><td><div>session_id_bundjalung</div></td></tr><tr><td style="font-weight:bold;vertical-align:top;">session_masterapp</td><td style="vertical-align:top;">:</td><td><div>Bundjalung</div></td></tr><tr><td style="font-weight:bold;vertical-align:top;">session_new</td><td style="vertical-align:top;">:</td><td><div>True</div></td></tr><tr><td style="font-weight:bold;vertical-align:top;">session_storage_type</td><td style="vertical-align:top;">:</td><td><div>db</div></td></tr><tr><td style="font-weight:bold;vertical-align:top;">start</td><td style="vertical-align:top;">:</td><td><div>True</div></td></tr><tr><td style="font-weight:bold;vertical-align:top;">status</td><td style="vertical-align:top;">:</td><td><div>200</div></td></tr><tr><td style="font-weight:bold;vertical-align:top;">title</td><td style="vertical-align:top;">:</td><td><div>Bundjalung-Yugambeh Dictionary</div></td></tr><tr><td style="font-weight:bold;vertical-align:top;">view</td><td style="vertical-align:top;">:</td><td><div>default/_user.html</div></td></tr></table></div>'
tRp118
sS'locals'
p119
(dp120
S'Service'
p121
S"<class 'gluon.tools.Service'>"
p122
sS'plugin_gmaps'
p123
S"<Storage {'color': <function <lambda> at 0x7f9f0...address': <function <lambda> at 0x7f9f07359410>}>"
p124
sS'OBJECT'
p125
S"<class 'gluon.html.OBJECT'>"
p126
sS'track_changes'
p127
S'<function track_changes>'
p128
sS'SQLDB'
p129
S"<class 'gluon.dal.base.DAL'>"
p130
sg111
S'<Storage {}>'
p131
sS'reverse_geocode'
p132
S'<function reverse_geocode>'
p133
sS'BR'
p134
S"<class 'gluon.html.BR'>"
p135
sS'local_import'
p136
S'<function <lambda>>'
p137
sS'OPTGROUP'
p138
S"<class 'gluon.html.OPTGROUP'>"
p139
sS'LI'
p140
S"<class 'gluon.html.LI'>"
p141
sS'redirect'
p142
S'<function redirect>'
p143
sS'IS_INT_IN_RANGE'
p144
S"<class 'gluon.validators.IS_INT_IN_RANGE'>"
p145
sS'uuid'
p146
S"<module 'uuid' from '/usr/lib64/python2.7/uuid.pyc'>"
p147
sS'IS_LOWER'
p148
S"<class 'gluon.validators.IS_LOWER'>"
p149
sS'IS_STRONG'
p150
S"<class 'gluon.validators.IS_STRONG'>"
p151
sS'SlugValidator'
p152
S"<class '__restricted__.SlugValidator'>"
p153
sS'Recaptcha'
p154
S"<class 'gluon.tools.Recaptcha'>"
p155
sS'pprint'
p156
S"<module 'pprint' from '/usr/lib64/python2.7/pprint.pyc'>"
p157
sS'IS_EQUAL_TO'
p158
S"<class 'gluon.validators.IS_EQUAL_TO'>"
p159
sS'IS_IN_DB'
p160
S"<class 'gluon.validators.IS_IN_DB'>"
p161
sS'TAG'
p162
S'<gluon.html.__TAG__ object>'
p163
sS'SQLField'
p164
S"<class 'gluon.dal.objects.Field'>"
p165
sS'_f'
p166
S"'plugin_wiki/kendo/js/kendo.all.min.js'"
p167
sS'logger'
p168
S'<logging.Logger object>'
p169
sS'RECAPTCHA_PRIVATE_KEY'
p170
S"'6LefJwQAAAAAAPcK2G6SO_pyJDegHi58J41bEVrV'"
p171
sS'BODY'
p172
S"<class 'gluon.html.BODY'>"
p173
sS'IS_DATE_IN_RANGE'
p174
S"<class 'gluon.validators.IS_DATE_IN_RANGE'>"
p175
sS'TH'
p176
S"<class 'gluon.html.TH'>"
p177
sS'get'
p178
S'<function get>'
p179
sS'URL'
p180
S'<function URL>'
p181
sS'__file__'
p182
S"'/usr/local/web2py/applications/Bundjalung/models/plugin_wiki.py'"
p183
sS'IS_FLOAT_IN_RANGE'
p184
S"<class 'gluon.validators.IS_FLOAT_IN_RANGE'>"
p185
sS'db'
p186
S'<DAL uri="mysql:******@localhost/Bundjalung">'
p187
sS'auth'
p188
S'<gluon.tools.Auth object>'
p189
sS'P'
S"<class 'gluon.html.P'>"
p190
sS'T'
S'<gluon.languages.translator object>'
p191
sS'plugin_wiki_theme'
p192
S"'cupertino'"
p193
sS'XHTML'
p194
S"<class 'gluon.html.XHTML'>"
p195
sS'now'
p196
S'datetime.datetime(2015, 2, 5, 18, 22, 8, 950107)'
p197
sS'RECAPTCHA_PUBLIC_KEY'
p198
S"'6LefJwQAAAAAAEuj02bmS2LgiZiPhGBqKP1kbn26'"
p199
sS'ON'
p200
S'True'
p201
sS'OL'
p202
S"<class 'gluon.html.OL'>"
p203
sS'TEXTAREA'
p204
S"<class 'gluon.html.TEXTAREA'>"
p205
sS'MENU'
p206
S"<class 'gluon.html.MENU'>"
p207
sS'IS_IPADDRESS'
p208
S"<class 'gluon.validators.IS_IPADDRESS'>"
p209
sS'plugin_wiki_widgets'
p210
S"'all'"
p211
sS'IS_IMAGE'
p212
S"<class 'gluon.validators.IS_IMAGE'>"
p213
sS'LINK'
p214
S"<class 'gluon.html.LINK'>"
p215
sS'EM'
p216
S"<class 'gluon.html.EM'>"
p217
sS'CODE'
p218
S"<class 'gluon.html.CODE'>"
p219
sS'HTTP'
p220
S"<class 'gluon.http.HTTP'>"
p221
sS'HR'
p222
S"<class 'gluon.html.HR'>"
p223
sS'IS_DATETIME'
p224
S"<class 'gluon.validators.IS_DATETIME'>"
p225
sS'Storage'
p226
S"<class 'gluon.storage.Storage'>"
p227
sS'HEAD'
p228
S"<class 'gluon.html.HEAD'>"
p229
sS'LABEL'
p230
S"<class 'gluon.html.LABEL'>"
p231
sS'CLEANUP'
p232
S"<class 'gluon.validators.CLEANUP'>"
p233
sS'plugins'
p234
S'<gluon.tools.PluginManager object>'
p235
sS'SELECT'
p236
S"<class 'gluon.html.SELECT'>"
p237
sS'represent_email'
p238
S'<function represent_email>'
p239
sS'CENTER'
p240
S"<class 'gluon.html.CENTER'>"
p241
sS'prettydate'
p242
S'<function prettydate>'
p243
sS'custom_auth_table'
p244
S'<Table auth_user (id,first_name,last_name,userna...ey,registration_id,reset_password_key,Role_Name)>'
p245
sS'Crud'
p246
S"<class 'gluon.tools.Crud'>"
p247
sS'Auth'
p248
S"<class 'gluon.tools.Auth'>"
p249
sS'current'
p250
S'<thread._local object>'
p251
sS're'
p252
S"<module 're' from '/usr/lib64/python2.7/re.pyc'>"
p253
sS'HTML'
p254
S"<class 'gluon.html.HTML'>"
p255
sS'SQLFORM'
p256
S"<class 'gluon.sqlhtml.SQLFORM'>"
p257
sS'EMAIL_SERVER'
p258
S"'cities.org.au:25'"
p259
sS'languageList'
p260
S'None'
p261
sS'LOAD'
p262
S'<function LOAD>'
p263
sS'PRE'
p264
S"<class 'gluon.html.PRE'>"
p265
sS'represent_author'
p266
S'<function represent_author>'
p267
sS'FIELDSET'
p268
S"<class 'gluon.html.FIELDSET'>"
p269
sS'goto'
p270
S'<function goto>'
p271
sS'__builtins__'
p272
S"{'ArithmeticError': <type 'exceptions.ArithmeticError'>, 'AssertionError': <type 'exceptions.AssertionError'>, 'AttributeError': <type 'exceptions.AttributeError'>, 'BaseException': <type 'exceptions.BaseException'>, 'BufferError': <type 'exceptions.BufferError'>, 'BytesWarning': <type 'exceptions.BytesWarning'>, 'DeprecationWarning': <type 'exceptions.DeprecationWarning'>, 'EOFError': <type 'exceptions.EOFError'>, 'Ellipsis': Ellipsis, 'EnvironmentError': <type 'exceptions.EnvironmentError'>, ...}"
p273
sS'embed64'
p274
S'<function embed64>'
p275
sS'Validator'
p276
S"<class 'gluon.validators.Validator'>"
p277
sS'IS_LIST_OF'
p278
S"<class 'gluon.validators.IS_LIST_OF'>"
p279
sS'INPUT'
p280
S"<class 'gluon.html.INPUT'>"
p281
sS'EMBED'
p282
S"<class 'gluon.html.EMBED'>"
p283
sS'slug'
p284
S'<function slug>'
p285
sS'_'
S'<function _>'
p286
sS'logging'
p287
S"<module 'logging' from '/usr/lib64/python2.7/logging/__init__.pyc'>"
p288
sS'language'
p289
S"'Bundjalung'"
p290
sS'H2'
p291
S"<class 'gluon.html.H2'>"
p292
sS'H3'
p293
S"<class 'gluon.html.H3'>"
p294
sS'BUTTON'
p295
S"<class 'gluon.html.BUTTON'>"
p296
sS'H1'
p297
S"<class 'gluon.html.H1'>"
p298
sS'plugin_gmap'
p299
S"<Storage {'represent': <function <lambda> at 0x7...0>, 'id': <function <lambda> at 0x7f9f073590c8>}>"
p300
sS'plugin_wiki_level'
p301
S'3'
sS'H5'
p302
S"<class 'gluon.html.H5'>"
p303
sS'UL'
p304
S"<class 'gluon.html.UL'>"
p305
sS'IS_UPPER'
p306
S"<class 'gluon.validators.IS_UPPER'>"
p307
sS'xmlescape'
p308
S'<function xmlescape>'
p309
sS'TT'
p310
S"<class 'gluon.html.TT'>"
p311
sS'IS_TIME'
p312
S"<class 'gluon.validators.IS_TIME'>"
p313
sS'email_user'
p314
S'<function email_user>'
p315
sS'cache'
p316
S'<gluon.cache.Cache object>'
p317
sS'OPTION'
p318
S"<class 'gluon.html.OPTION'>"
p319
sS'TITLE'
p320
S"<class 'gluon.html.TITLE'>"
p321
sS'DEFAULT'
p322
S"{'authorize_attachments': False, 'editor': False, 'level': 3, 'migrate': False, 'mode': 'html', 'theme': 'cupertino', 'widgets': 'all'}"
p323
sS'CRYPT'
p324
S"<class 'gluon.validators.CRYPT'>"
p325
sS'plugin_multiselect_include'
p326
S'<function plugin_multiselect_include>'
p327
sS'IS_EMPTY_OR'
p328
S"<class 'gluon.validators.IS_EMPTY_OR'>"
p329
sS'MARKMIN'
p330
S"<class 'gluon.html.MARKMIN'>"
p331
sS'__name__'
p332
S"'__restricted__'"
p333
sS'STRONG'
p334
S"<class 'gluon.html.STRONG'>"
p335
sS'COL'
p336
S"<class 'gluon.html.COL'>"
p337
sS'service'
p338
S'<gluon.tools.Service object>'
p339
sS'SCRIPT'
p340
S"<class 'gluon.html.SCRIPT'>"
p341
sS'GOOGLEMAP_KEY'
p342
S"'ABQIAAAAgmnPur4uFr3tfb2KjkqXHxRUlOG9qJIroEAuogNlnP0txuwBIxQxpGXF06NPhGKQ0uBcy_OLlgghdA'"
p343
sS'geocode'
p344
S'<function geocode>'
p345
sS'email_all_user'
p346
S'<function email_all_user>'
p347
sS'TABLE'
p348
S"<class 'gluon.html.TABLE'>"
p349
sS'IS_IPV4'
p350
S"<class 'gluon.validators.IS_IPV4'>"
p351
sS'IS_LENGTH'
p352
S"<class 'gluon.validators.IS_LENGTH'>"
p353
sS'IS_IPV6'
p354
S"<class 'gluon.validators.IS_IPV6'>"
p355
sS'XML'
p356
S"<class 'gluon.html.XML'>"
p357
sS'ANY_OF'
p358
S"<class 'gluon.validators.ANY_OF'>"
p359
sS'B'
S"<class 'gluon.html.B'>"
p360
sS'IMG'
p361
S"<class 'gluon.html.IMG'>"
p362
sS'SQLTABLE'
p363
S"<class 'gluon.sqlhtml.SQLTABLE'>"
p364
sS'menu_rec'
p365
S'<function menu_rec>'
p366
sS'slideshow'
p367
S'<function slideshow>'
p368
sS'mail'
p369
S'<gluon.tools.Mail object>'
p370
sS'PunktWordTokenizer'
p371
S"<class 'nltk.tokenize.punkt.PunktWordTokenizer'>"
p372
sS'SPAN'
p373
S"<class 'gluon.html.SPAN'>"
p374
sS'IS_JSON'
p375
S"<class 'gluon.validators.IS_JSON'>"
p376
sS'default'
p377
S'0'
sS'plugin_wiki_editor'
p378
S'False'
p379
sS'IS_SLUG'
p380
S"<class 'gluon.validators.IS_SLUG'>"
p381
sS'BEAUTIFY'
p382
S"<class 'gluon.html.BEAUTIFY'>"
p383
sS'META'
p384
S"<class 'gluon.html.META'>"
p385
sS'error'
p386
S'<function error>'
p387
sS'plugin_wiki_migrate'
p388
g379
sS'fetch'
p389
S'<function fetch>'
p390
sS'IS_DATE'
p391
S"<class 'gluon.validators.IS_DATE'>"
p392
sS'IS_EMAIL'
p393
S"<class 'gluon.validators.IS_EMAIL'>"
p394
sS'IS_NOT_EMPTY'
p395
S"<class 'gluon.validators.IS_NOT_EMPTY'>"
p396
sS'H6'
p397
S"<class 'gluon.html.H6'>"
p398
sS'TBODY'
p399
S"<class 'gluon.html.TBODY'>"
p400
sS'CAT'
p401
S"<class 'gluon.html.CAT'>"
p402
sS'Field'
p403
S"<class 'gluon.dal.objects.Field'>"
p404
sS'tag'
p405
S'None'
p406
sS'H4'
p407
S"<class 'gluon.html.H4'>"
p408
sS'IS_LIST_OF_EMAILS'
p409
S"<class 'gluon.validators.IS_LIST_OF_EMAILS'>"
p410
sg56
S"<Storage {'_vars': None, 'function': '_user', 'c...': '/usr/local/web2py/applications/Bundjalung/'}>"
p411
sS'Mail'
p412
S"<class 'gluon.tools.Mail'>"
p413
sS'DIV'
p414
S"<class 'gluon.html.DIV'>"
p415
sS'LEGEND'
p416
S"<class 'gluon.html.LEGEND'>"
p417
sS'EMAIL_AUTH'
p418
S"'ckutay@cities.org.au:AK131391'"
p419
sS'usernames'
p420
S"{None: 'Anonymous', 0: 'Anonymous', 1L: 'Cat Kutay', 2L: 'Cat Kutay', 3L: 'Margaret Sharpe', 4L: 'Ana Ash', 5L: 'Karyn Silva de Azevedo', 19L: 'Cat Kutay'}"
p421
sS'COLGROUP'
p422
S"<class 'gluon.html.COLGROUP'>"
p423
sS'DAL'
p424
S"<class 'gluon.dal.base.DAL'>"
p425
sS'ASSIGNJS'
p426
S'<function ASSIGNJS>'
p427
sS'TR'
p428
S"<class 'gluon.html.TR'>"
p429
sS'plugin_wiki_authorize_attachments'
p430
g379
sS'__package__'
p431
S'None'
p432
sS'TOP_MESSAGE'
p433
S"'Contact form'"
p434
sS'IFRAME'
p435
S"<class 'gluon.html.IFRAME'>"
p436
sS'dblanguage'
p437
S'<DAL uri="mysql:******@localhost/language">'
p438
sS'TD'
p439
S"<class 'gluon.html.TD'>"
p440
sS'PluginManager'
p441
S"<class 'gluon.tools.PluginManager'>"
p442
sS'IS_URL'
p443
S"<class 'gluon.validators.IS_URL'>"
p444
sS'IS_MATCH'
p445
S"<class 'gluon.validators.IS_MATCH'>"
p446
sS'A'
S"<class 'gluon.html.A'>"
p447
sS'STYLE'
p448
S"<class 'gluon.html.STYLE'>"
p449
sS'IS_DATETIME_IN_RANGE'
p450
S"<class 'gluon.validators.IS_DATETIME_IN_RANGE'>"
p451
sS'users'
p452
S'<Rows (6)>'
p453
sS'FORM'
p454
S"<class 'gluon.html.FORM'>"
p455
sS'I'
S"<class 'gluon.html.I'>"
p456
sS'crud'
p457
S'<gluon.tools.Crud object>'
p458
sS'who'
p459
S'0'
sS'use_janrain'
p460
S'<function use_janrain>'
p461
sS'VALUE'
p462
S"''"
p463
sS'IS_ALPHANUMERIC'
p464
S"<class 'gluon.validators.IS_ALPHANUMERIC'>"
p465
sS'sys'
p466
S"<module 'sys' (built-in)>"
p467
sS'IS_NOT_IN_DB'
p468
S"<class 'gluon.validators.IS_NOT_IN_DB'>"
p469
sg117
S"<Storage {'body': <cStringIO.StringO object at 0...ey,session_data)>, 'view': 'default/_user.html'}>"
p470
sS'THEAD'
p471
S"<class 'gluon.html.THEAD'>"
p472
sS'Wiki'
p473
S"<class 'gluon.tools.Wiki'>"
p474
sS'plugin_multiselect'
p475
S'<function plugin_multiselect>'
p476
sS'IS_NULL_OR'
p477
S"<class 'gluon.validators.IS_EMPTY_OR'>"
p478
sS'plugin_wiki_mode'
p479
S"'html'"
p480
sS'url'
p481
S'<function url>'
p482
sS'multiselect_widget'
p483
S'<function multiselect_widget>'
p484
sS'IS_EXPR'
p485
S"<class 'gluon.validators.IS_EXPR'>"
p486
sS'EMAIL_SENDER'
p487
S"'ckutay@cities.org.au'"
p488
sS'IS_IN_SET'
p489
S"<class 'gluon.validators.IS_IN_SET'>"
p490
sS'u'
S"<Row {'first_name': 'Cat', 'last_name': 'Kutay',...d15cacb120a68f9818db', 'registration_key': None}>"
p491
sS'IS_UPLOAD_FILENAME'
p492
S"<class 'gluon.validators.IS_UPLOAD_FILENAME'>"
p493
sS'IS_DECIMAL_IN_RANGE'
p494
S"<class 'gluon.validators.IS_DECIMAL_IN_RANGE'>"
p495
sS'nltk'
p496
S"<module 'nltk' from '/usr/lib/python2.7/site-packages/nltk/__init__.pyc'>"
p497
sS'TFOOT'
p498
S"<class 'gluon.html.TFOOT'>"
p499
sssS'traceback'
p500
S'Traceback (most recent call last):\n  File "/usr/local/web2py/gluon/restricted.py", line 224, in restricted\n    exec ccode in environment\n  File "/usr/local/web2py/applications/Bundjalung/models/plugin_wiki.py", line 121, in <module>\n    Field(\'worksheet\',string, length=1,default=\'F\'),\nNameError: name \'string\' is not defined\n'
p501
s.